(dp0
S'344414212'
p1
(dp2
S'FED receiver'
p3
S't'
p4
sS'FED ID'
p5
S'1325'
p6
sS'FEC FED crate'
p7
S'down center'
p8
sS'FED position'
p9
S'6'
p10
sS'FEC position'
p11
S'10'
p12
sS'CCU'
p13
S'0x7e'
p14
sS'FED channel'
p15
S'3/4'
p16
sS'detId'
p17
g1
sS'channel'
p18
S'0x10'
p19
sS'FEC ID'
p20
S''
p21
ssS'344819716'
p22
(dp23
g3
S'b'
p24
sg5
S'1322'
p25
sS'FEC FED crate'
p26
S'down center'
p27
sg9
S'3'
p28
sg11
S'9'
p29
sg13
S'0x7c'
p30
sg15
S'47/48'
p31
sg17
g22
sg18
S'0x12'
p32
sg20
g21
ssS'344552452'
p33
(dp34
g3
g4
sg5
S'1323'
p35
sS'FEC FED crate'
p36
S'down center'
p37
sg9
S'4'
p38
sg11
g29
sg13
S'0x7c'
p39
sg15
S'13/14'
p40
sg17
g33
sg18
S'0x11'
p41
sg20
g21
ssS'344474628'
p42
(dp43
g3
g4
sg5
S'1321'
p44
sS'FEC FED crate'
p45
S'down center'
p46
sg9
S'2'
p47
sg11
g29
sg13
S'0x7b'
p48
sg15
S'13/14'
p49
sg17
g42
sg18
S'0x11'
p50
sg20
g21
ssS'344528900'
p51
(dp52
g3
g24
sg5
S'1338'
p53
sS'FEC FED crate'
p54
S'bottom'
p55
sg9
S'7'
p56
sg11
S'10'
p57
sg13
S'0x7b'
p58
sg15
S'39/40'
p59
sg17
g51
sg18
S'0x11'
p60
sg20
g21
ssS'353281028'
p61
(dp62
g3
g4
sg5
S'1312'
p63
sS'FEC FED crate'
p64
S'up center'
p65
sg9
S'5'
p66
sg11
g29
sg13
S'0x7e'
p67
sg15
S'17/18'
p68
sg17
g61
sg18
S'0x12'
p69
sg20
g21
ssS'344392708'
p70
(dp71
g3
g24
sg5
S'1338'
p72
sS'FEC FED crate'
p73
S'bottom'
p74
sg9
g56
sg11
S'10'
p75
sg13
S'0x7b'
p76
sg15
S'25/26'
p77
sg17
g70
sg18
S'0x10'
p78
sg20
g21
ssS'344224772'
p79
(dp80
g3
g4
sg5
S'1332'
p81
sS'FEC FED crate'
p82
S'bottom'
p83
sg9
S'1'
p84
sg11
g29
sg13
S'0x7d'
p85
sg15
S'1/2'
p86
sg17
g79
sg18
S'0x10'
p87
sg20
g21
ssS'353216516'
p88
(dp89
g3
g4
sg5
S'1298'
p90
sS'FEC FED crate'
p91
S'top'
p92
sg9
g28
sg11
g29
sg13
S'0x7e'
p93
sg15
S'19/20'
p94
sg17
g88
sg18
S'0x12'
p95
sg20
g21
ssS'353220612'
p96
(dp97
g3
g24
sg5
S'1297'
p98
sS'FEC FED crate'
p99
S'top'
p100
sg9
g47
sg11
g29
sg13
S'0x7e'
p101
sg15
S'43/44'
p102
sg17
g96
sg18
S'0x12'
p103
sg20
g21
ssS'344766468'
p104
(dp105
g3
g24
sg5
S'1334'
p106
sS'FEC FED crate'
p107
S'bottom'
p108
sg9
g28
sg11
g29
sg13
S'0x7e'
p109
sg15
S'47/48'
p110
sg17
g104
sg18
S'0x12'
p111
sg20
g21
ssS'353253380'
p112
(dp113
g3
g24
sg5
S'1309'
p114
sS'FEC FED crate'
p115
S'up center'
p116
sg9
g47
sg11
g29
sg13
S'0x7b'
p117
sg15
S'43/44'
p118
sg17
g112
sg18
S'0x12'
p119
sg20
g21
ssS'352723972'
p120
(dp121
g3
g4
sg5
S'1309'
p122
sS'FEC FED crate'
p123
S'up center'
p124
sg9
g47
sg11
g29
sg13
S'0x7b'
p125
sg15
S'1/2'
p126
sg17
g120
sg18
S'0x10'
p127
sg20
g21
ssS'352912388'
p128
(dp129
g3
g4
sg5
S'1314'
p130
sS'FEC FED crate'
p131
S'up center'
p132
sg9
g56
sg11
S'10'
p133
sg13
S'0x7d'
p134
sg15
S'9/10'
p135
sg17
g128
sg18
S'0x11'
p136
sg20
g21
ssS'344302596'
p137
(dp138
g3
g4
sg5
S'1322'
p139
sS'FEC FED crate'
p140
S'down center'
p141
sg9
g28
sg11
g29
sg13
S'0x7c'
p142
sg15
S'5/6'
p143
sg17
g137
sg18
S'0x10'
p144
sg20
g21
ssS'352663556'
p145
(dp146
g3
g4
sg5
S'1302'
p147
sS'FEC FED crate'
p148
S'top'
p149
sg9
g56
sg11
S'10'
p150
sg13
S'0x7b'
p151
sg15
S'7/8'
p152
sg17
g145
sg18
S'0x10'
p153
sg20
g21
ssS'353142788'
p154
(dp155
g3
g24
sg5
S'1308'
p156
sS'FEC FED crate'
p157
S'up center'
p158
sg9
g84
sg11
g29
sg13
S'0x7b'
p159
sg15
S'47/48'
p160
sg17
g154
sg18
S'0x12'
p161
sg20
g21
ssS'352983044'
p162
(dp163
g3
g24
sg5
S'1308'
p164
sS'FEC FED crate'
p165
S'up center'
p166
sg9
g84
sg11
g29
sg13
S'0x7b'
p167
sg15
S'35/36'
p168
sg17
g162
sg18
S'0x11'
p169
sg20
g21
ssS'352942084'
p170
(dp171
g3
g24
sg5
S'1299'
p172
sS'FEC FED crate'
p173
S'top'
p174
sg9
g38
sg11
S'10'
p175
sg13
S'0x7c'
p176
sg15
S'39/40'
p177
sg17
g170
sg18
S'0x11'
p178
sg20
g21
ssS'352753668'
p179
(dp180
g3
g24
sg5
S'1311'
p181
sS'FEC FED crate'
p182
S'up center'
p183
sg9
g38
sg11
S'10'
p184
sg13
S'0x7e'
p185
sg15
S'27/28'
p186
sg17
g179
sg18
S'0x10'
p187
sg20
g21
ssS'344470532'
p188
(dp189
g3
g4
sg5
S'1322'
p190
sS'FEC FED crate'
p191
S'down center'
p192
sg9
g28
sg11
g29
sg13
S'0x7c'
p193
sg15
S'9/10'
p194
sg17
g188
sg18
S'0x11'
p195
sg20
g21
ssS'344253444'
p196
(dp197
g3
g24
sg5
S'1336'
p198
sS'FEC FED crate'
p199
S'bottom'
p200
sg9
g66
sg11
S'10'
p201
sg13
S'0x7c'
p202
sg15
S'25/26'
p203
sg17
g196
sg18
S'0x10'
p204
sg20
g21
ssS'353002500'
p205
(dp206
g3
g24
sg5
S'1310'
p207
sS'FEC FED crate'
p208
S'up center'
p209
sg9
g28
sg11
g29
sg13
S'0x7c'
p210
sg15
S'33/34'
p211
sg17
g205
sg18
S'0x11'
p212
sg20
g21
ssS'353211396'
p213
(dp214
g3
g24
sg5
S'1298'
p215
sS'FEC FED crate'
p216
S'top'
p217
sg9
g28
sg11
g29
sg13
S'0x7e'
p218
sg15
S'41/42'
p219
sg17
g213
sg18
S'0x12'
p220
sg20
g21
ssS'352961540'
p221
(dp222
g3
g24
sg5
S'1297'
p223
sS'FEC FED crate'
p224
S'top'
p225
sg9
g47
sg11
g29
sg13
S'0x7d'
p226
sg15
S'37/38'
p227
sg17
g221
sg18
S'0x11'
p228
sg20
g21
ssS'344523780'
p229
(dp230
g3
g4
sg5
S'1338'
p231
sS'FEC FED crate'
p232
S'bottom'
p233
sg9
g56
sg11
S'10'
p234
sg13
S'0x7b'
p235
sg15
S'13/14'
p236
sg17
g229
sg18
S'0x11'
p237
sg20
g21
ssS'344934404'
p238
(dp239
g3
g4
sg5
S'1325'
p240
sS'FEC FED crate'
p241
S'down center'
p242
sg9
g10
sg11
g29
sg13
S'0x7d'
p243
sg15
S'23/24'
p244
sg17
g238
sg18
S'0x12'
p245
sg20
g21
ssS'352651268'
p246
(dp247
g3
g4
sg5
S'1314'
p248
sS'FEC FED crate'
p249
S'up center'
p250
sg9
g56
sg11
S'10'
p251
sg13
S'0x7d'
p252
sg15
S'3/4'
p253
sg17
g246
sg18
S'0x10'
p254
sg20
g21
ssS'352860164'
p255
(dp256
g3
g4
sg5
S'1298'
p257
sS'FEC FED crate'
p258
S'top'
p259
sg9
g28
sg11
g29
sg13
S'0x7e'
p260
sg15
S'15/16'
p261
sg17
g255
sg18
S'0x11'
p262
sg20
g21
ssS'352745476'
p263
(dp264
g3
g24
sg5
S'1310'
p265
sS'FEC FED crate'
p266
S'up center'
p267
sg9
g28
sg11
g29
sg13
S'0x7c'
p268
sg15
S'31/32'
p269
sg17
g263
sg18
S'0x10'
p270
sg20
g21
ssS'353236996'
p271
(dp272
g3
g4
sg5
S'1296'
p273
sS'FEC FED crate'
p274
S'top'
p275
sg9
g84
sg11
g29
sg13
S'0x7d'
p276
sg15
S'23/24'
p277
sg17
g271
sg18
S'0x12'
p278
sg20
g21
ssS'353204228'
p279
(dp280
g3
g24
sg5
S'1299'
p281
sS'FEC FED crate'
p282
S'top'
p283
sg9
g38
sg11
g29
sg13
S'0x7c'
p284
sg15
S'47/48'
p285
sg17
g279
sg18
S'0x12'
p286
sg20
g21
ssS'344761348'
p287
(dp288
g3
g4
sg5
S'1334'
p289
sS'FEC FED crate'
p290
S'bottom'
p291
sg9
g28
sg11
g29
sg13
S'0x7e'
p292
sg15
S'21/22'
p293
sg17
g287
sg18
S'0x12'
p294
sg20
g21
ssS'344610820'
p295
(dp296
g3
g4
sg5
S'1334'
p297
sS'FEC FED crate'
p298
S'bottom'
p299
sg9
g28
sg11
g29
sg13
S'0x7e'
p300
sg15
S'11/12'
p301
sg17
g295
sg18
S'0x11'
p302
sg20
g21
ssS'353044484'
p303
(dp304
g3
g24
sg5
S'1314'
p305
sS'FEC FED crate'
p306
S'up center'
p307
sg9
g56
sg11
S'10'
p308
sg13
S'0x7d'
p309
sg15
S'39/40'
p310
sg17
g303
sg18
S'0x11'
p311
sg20
g21
ssS'344303620'
p312
(dp313
g3
g4
sg5
S'1322'
p314
sS'FEC FED crate'
p315
S'down center'
p316
sg9
g28
sg11
g29
sg13
S'0x7c'
p317
sg15
S'7/8'
p318
sg17
g312
sg18
S'0x10'
p319
sg20
g21
ssS'344606724'
p320
(dp321
g3
g24
sg5
S'1333'
p322
sS'FEC FED crate'
p323
S'bottom'
p324
sg9
g47
sg11
g29
sg13
S'0x7e'
p325
sg15
S'35/36'
p326
sg17
g320
sg18
S'0x11'
p327
sg20
g21
ssS'344941572'
p328
(dp329
g3
g24
sg5
S'1324'
p330
sS'FEC FED crate'
p331
S'down center'
p332
sg9
g66
sg11
g29
sg13
S'0x7e'
p333
sg15
S'41/42'
p334
sg17
g328
sg18
S'0x12'
p335
sg20
g21
ssS'353305604'
p336
(dp337
g3
g24
sg5
S'1314'
p338
sS'FEC FED crate'
p339
S'up center'
p340
sg9
g56
sg11
g29
sg13
S'0x7d'
p341
sg15
S'45/46'
p342
sg17
g336
sg18
S'0x12'
p343
sg20
g21
ssS'344287236'
p344
(dp345
g3
g4
sg5
S'1324'
p346
sS'FEC FED crate'
p347
S'down center'
p348
sg9
g66
sg11
S'10'
p349
sg13
S'0x7e'
p350
sg15
S'7/8'
p351
sg17
g344
sg18
S'0x10'
p352
sg20
g21
ssS'344258564'
p353
(dp354
g3
g24
sg5
S'1337'
p355
sS'FEC FED crate'
p356
S'bottom'
p357
sg9
g10
sg11
S'10'
p358
sg13
S'0x7b'
p359
sg15
S'31/32'
p360
sg17
g353
sg18
S'0x10'
p361
sg20
g21
ssS'344204292'
p362
(dp363
g3
g4
sg5
S'1323'
p364
sS'FEC FED crate'
p365
S'down center'
p366
sg9
g38
sg11
g29
sg13
S'0x7c'
p367
sg15
S'1/2'
p368
sg17
g362
sg18
S'0x10'
p369
sg20
g21
ssS'344388612'
p370
(dp371
g3
g4
sg5
S'1338'
p372
sS'FEC FED crate'
p373
S'bottom'
p374
sg9
g56
sg11
S'10'
p375
sg13
S'0x7b'
p376
sg15
S'1/2'
p377
sg17
g370
sg18
S'0x10'
p378
sg20
g21
ssS'344569860'
p379
(dp380
g3
g24
sg5
S'1321'
p381
sS'FEC FED crate'
p382
S'down center'
p383
sg9
g47
sg11
g29
sg13
S'0x7c'
p384
sg15
S'39/40'
p385
sg17
g379
sg18
S'0x11'
p386
sg20
g21
ssS'344228868'
p387
(dp388
g3
g24
sg5
S'1332'
p389
sS'FEC FED crate'
p390
S'bottom'
p391
sg9
g84
sg11
g29
sg13
S'0x7d'
p392
sg15
S'25/26'
p393
sg17
g387
sg18
S'0x10'
p394
sg20
g21
ssS'344810500'
p395
(dp396
g3
g4
sg5
S'1324'
p397
sS'FEC FED crate'
p398
S'down center'
p399
sg9
g66
sg11
g29
sg13
S'0x7e'
p400
sg15
S'21/22'
p401
sg17
g395
sg18
S'0x12'
p402
sg20
g21
ssS'344318980'
p403
(dp404
g3
g24
sg5
S'1320'
p405
sS'FEC FED crate'
p406
S'down center'
p407
sg9
g84
sg11
g29
sg13
S'0x7b'
p408
sg15
S'25/26'
p409
sg17
g403
sg18
S'0x10'
p410
sg20
g21
ssS'344245252'
p411
(dp412
g3
g4
sg5
S'1335'
p413
sS'FEC FED crate'
p414
S'bottom'
p415
sg9
g38
sg11
g29
sg13
S'0x7e'
p416
sg15
S'5/6'
p417
sg17
g411
sg18
S'0x10'
p418
sg20
g21
ssS'344598532'
p419
(dp420
g3
g4
sg5
S'1333'
p421
sS'FEC FED crate'
p422
S'bottom'
p423
sg9
g47
sg11
g29
sg13
S'0x7d'
p424
sg15
S'15/16'
p425
sg17
g419
sg18
S'0x11'
p426
sg20
g21
ssS'352794628'
p427
(dp428
g3
g24
sg5
S'1301'
p429
sS'FEC FED crate'
p430
S'top'
p431
sg9
g10
sg11
S'10'
p432
sg13
S'0x7b'
p433
sg15
S'27/28'
p434
sg17
g427
sg18
S'0x10'
p435
sg20
g21
ssS'352891908'
p436
(dp437
g3
g4
sg5
S'1311'
p438
sS'FEC FED crate'
p439
S'up center'
p440
sg9
g38
sg11
g29
sg13
S'0x7c'
p441
sg15
S'9/10'
p442
sg17
g436
sg18
S'0x11'
p443
sg20
g21
ssS'344250372'
p444
(dp445
g3
g24
sg5
S'1335'
p446
sS'FEC FED crate'
p447
S'bottom'
p448
sg9
g38
sg11
S'10'
p449
sg13
S'0x7c'
p450
sg15
S'27/28'
p451
sg17
g444
sg18
S'0x10'
p452
sg20
g21
ssS'352684036'
p453
(dp454
g3
g4
sg5
S'1299'
p455
sS'FEC FED crate'
p456
S'top'
p457
sg9
g38
sg11
g29
sg13
S'0x7e'
p458
sg15
S'3/4'
p459
sg17
g453
sg18
S'0x10'
p460
sg20
g21
ssS'344737796'
p461
(dp462
g3
g4
sg5
S'1321'
p463
sS'FEC FED crate'
p464
S'down center'
p465
sg9
g47
sg11
g29
sg13
S'0x7b'
p466
sg15
S'23/24'
p467
sg17
g461
sg18
S'0x12'
p468
sg20
g21
ssS'352588804'
p469
(dp470
g3
g4
sg5
S'1299'
p471
sS'FEC FED crate'
p472
S'top'
p473
sg9
g38
sg11
g29
sg13
S'0x7e'
p474
sg15
S'5/6'
p475
sg17
g469
sg18
S'0x10'
p476
sg20
g21
ssS'353232900'
p477
(dp478
g3
g24
sg5
S'1296'
p479
sS'FEC FED crate'
p480
S'top'
p481
sg9
g84
sg11
g29
sg13
S'0x7d'
p482
sg15
S'47/48'
p483
sg17
g477
sg18
S'0x12'
p484
sg20
g21
ssS'352724996'
p485
(dp486
g3
g4
sg5
S'1309'
p487
sS'FEC FED crate'
p488
S'up center'
p489
sg9
g47
sg11
g29
sg13
S'0x7b'
p490
sg15
S'3/4'
p491
sg17
g485
sg18
S'0x10'
p492
sg20
g21
ssS'344348676'
p493
(dp494
g3
g4
sg5
S'1334'
p495
sS'FEC FED crate'
p496
S'bottom'
p497
sg9
g28
sg11
g29
sg13
S'0x7e'
p498
sg15
S'3/4'
p499
sg17
g493
sg18
S'0x10'
p500
sg20
g21
ssS'344212484'
p501
(dp502
g3
g4
sg5
S'1321'
p503
sS'FEC FED crate'
p504
S'down center'
p505
sg9
g47
sg11
g29
sg13
S'0x7b'
p506
sg15
S'5/6'
p507
sg17
g501
sg18
S'0x10'
p508
sg20
g21
ssS'344418308'
p509
(dp510
g3
g24
sg5
S'1324'
p511
sS'FEC FED crate'
p512
S'down center'
p513
sg9
g66
sg11
S'10'
p514
sg13
S'0x7e'
p515
sg15
S'27/28'
p516
sg17
g509
sg18
S'0x10'
p517
sg20
g21
ssS'353052676'
p518
(dp519
g3
g4
sg5
S'1302'
p520
sS'FEC FED crate'
p521
S'top'
p522
sg9
g56
sg11
S'10'
p523
sg13
S'0x7b'
p524
sg15
S'11/12'
p525
sg17
g518
sg18
S'0x11'
p526
sg20
g21
ssS'344814596'
p527
(dp528
g3
g4
sg5
S'1323'
p529
sS'FEC FED crate'
p530
S'down center'
p531
sg9
g38
sg11
g29
sg13
S'0x7c'
p532
sg15
S'21/22'
p533
sg17
g527
sg18
S'0x12'
p534
sg20
g21
ssS'353073156'
p535
(dp536
g3
g4
sg5
S'1300'
p537
sS'FEC FED crate'
p538
S'top'
p539
sg9
g66
sg11
S'10'
p540
sg13
S'0x7c'
p541
sg15
S'11/12'
p542
sg17
g535
sg18
S'0x11'
p543
sg20
g21
ssS'344802308'
p544
(dp545
g3
g24
sg5
S'1325'
p546
sS'FEC FED crate'
p547
S'down center'
p548
sg9
g10
sg11
g29
sg13
S'0x7d'
p549
sg15
S'41/42'
p550
sg17
g544
sg18
S'0x12'
p551
sg20
g21
ssS'344630276'
p552
(dp553
g3
g4
sg5
S'1336'
p554
sS'FEC FED crate'
p555
S'bottom'
p556
sg9
g66
sg11
S'10'
p557
sg13
S'0x7c'
p558
sg15
S'9/10'
p559
sg17
g552
sg18
S'0x11'
p560
sg20
g21
ssS'344832004'
p561
(dp562
g3
g24
sg5
S'1321'
p563
sS'FEC FED crate'
p564
S'down center'
p565
sg9
g47
sg11
g29
sg13
S'0x7c'
p566
sg15
S'47/48'
p567
sg17
g561
sg18
S'0x12'
p568
sg20
g21
ssS'353146884'
p569
(dp570
g3
g4
sg5
S'1309'
p571
sS'FEC FED crate'
p572
S'up center'
p573
sg9
g47
sg11
g29
sg13
S'0x7b'
p574
sg15
S'23/24'
p575
sg17
g569
sg18
S'0x12'
p576
sg20
g21
ssS'353200132'
p577
(dp578
g3
g24
sg5
S'1299'
p579
sS'FEC FED crate'
p580
S'top'
p581
sg9
g38
sg11
g29
sg13
S'0x7c'
p582
sg15
S'43/44'
p583
sg17
g577
sg18
S'0x12'
p584
sg20
g21
ssS'344356868'
p585
(dp586
g3
g4
sg5
S'1335'
p587
sS'FEC FED crate'
p588
S'bottom'
p589
sg9
g38
sg11
g29
sg13
S'0x7e'
p590
sg15
S'3/4'
p591
sg17
g585
sg18
S'0x10'
p592
sg20
g21
ssS'344421380'
p593
(dp594
g3
g4
sg5
S'1324'
p595
sS'FEC FED crate'
p596
S'down center'
p597
sg9
g66
sg11
S'10'
p598
sg13
S'0x7e'
p599
sg15
S'1/2'
p600
sg17
g593
sg18
S'0x10'
p601
sg20
g21
ssS'352760836'
p602
(dp603
g3
g24
sg5
S'1312'
p604
sS'FEC FED crate'
p605
S'up center'
p606
sg9
g66
sg11
S'10'
p607
sg13
S'0x7e'
p608
sg15
S'25/26'
p609
sg17
g602
sg18
S'0x10'
p610
sg20
g21
ssS'344847364'
p611
(dp612
g3
g4
sg5
S'1320'
p613
sS'FEC FED crate'
p614
S'down center'
p615
sg9
g84
sg11
g29
sg13
S'0x7b'
p616
sg15
S'17/18'
p617
sg17
g611
sg18
S'0x12'
p618
sg20
g21
ssS'353051652'
p619
(dp620
g3
g4
sg5
S'1302'
p621
sS'FEC FED crate'
p622
S'top'
p623
sg9
g56
sg11
S'10'
p624
sg13
S'0x7b'
p625
sg15
S'9/10'
p626
sg17
g619
sg18
S'0x11'
p627
sg20
g21
ssS'344310788'
p628
(dp629
g3
g24
sg5
S'1321'
p630
sS'FEC FED crate'
p631
S'down center'
p632
sg9
g47
sg11
g29
sg13
S'0x7b'
p633
sg15
S'25/26'
p634
sg17
g628
sg18
S'0x10'
p635
sg20
g21
ssS'344373252'
p636
(dp637
g3
g24
sg5
S'1336'
p638
sS'FEC FED crate'
p639
S'bottom'
p640
sg9
g66
sg11
S'10'
p641
sg13
S'0x7c'
p642
sg15
S'31/32'
p643
sg17
g636
sg18
S'0x10'
p644
sg20
g21
ssS'344785924'
p645
(dp646
g3
g4
sg5
S'1338'
p647
sS'FEC FED crate'
p648
S'bottom'
p649
sg9
g56
sg11
g29
sg13
S'0x7b'
p650
sg15
S'21/22'
p651
sg17
g645
sg18
S'0x12'
p652
sg20
g21
ssS'353024004'
p653
(dp654
g3
g24
sg5
S'1312'
p655
sS'FEC FED crate'
p656
S'up center'
p657
sg9
g66
sg11
S'10'
p658
sg13
S'0x7e'
p659
sg15
S'35/36'
p660
sg17
g653
sg18
S'0x11'
p661
sg20
g21
ssS'344736772'
p662
(dp663
g3
g4
sg5
S'1321'
p664
sS'FEC FED crate'
p665
S'down center'
p666
sg9
g47
sg11
g29
sg13
S'0x7b'
p667
sg15
S'21/22'
p668
sg17
g662
sg18
S'0x12'
p669
sg20
g21
ssS'353162244'
p670
(dp671
g3
g4
sg5
S'1312'
p672
sS'FEC FED crate'
p673
S'up center'
p674
sg9
g66
sg11
g29
sg13
S'0x7e'
p675
sg15
S'21/22'
p676
sg17
g670
sg18
S'0x12'
p677
sg20
g21
ssS'344320004'
p678
(dp679
g3
g24
sg5
S'1320'
p680
sS'FEC FED crate'
p681
S'down center'
p682
sg9
g84
sg11
g29
sg13
S'0x7b'
p683
sg15
S'27/28'
p684
sg17
g678
sg18
S'0x10'
p685
sg20
g21
ssS'344888324'
p686
(dp687
g3
g4
sg5
S'1336'
p688
sS'FEC FED crate'
p689
S'bottom'
p690
sg9
g66
sg11
g29
sg13
S'0x7c'
p691
sg15
S'21/22'
p692
sg17
g686
sg18
S'0x12'
p693
sg20
g21
ssS'352596996'
p694
(dp695
g3
g4
sg5
S'1298'
p696
sS'FEC FED crate'
p697
S'top'
p698
sg9
g28
sg11
g29
sg13
S'0x7e'
p699
sg15
S'5/6'
p700
sg17
g694
sg18
S'0x10'
p701
sg20
g21
ssS'344646660'
p702
(dp703
g3
g24
sg5
S'1337'
p704
sS'FEC FED crate'
p705
S'bottom'
p706
sg9
g10
sg11
S'10'
p707
sg13
S'0x7b'
p708
sg15
S'33/34'
p709
sg17
g702
sg18
S'0x11'
p710
sg20
g21
ssS'353163268'
p711
(dp712
g3
g4
sg5
S'1312'
p713
sS'FEC FED crate'
p714
S'up center'
p715
sg9
g66
sg11
g29
sg13
S'0x7e'
p716
sg15
S'23/24'
p717
sg17
g711
sg18
S'0x12'
p718
sg20
g21
ssS'352782340'
p719
(dp720
g3
g24
sg5
S'1314'
p721
sS'FEC FED crate'
p722
S'up center'
p723
sg9
g56
sg11
S'10'
p724
sg13
S'0x7d'
p725
sg15
S'31/32'
p726
sg17
g719
sg18
S'0x10'
p727
sg20
g21
ssS'344294404'
p728
(dp729
g3
g24
sg5
S'1322'
p730
sS'FEC FED crate'
p731
S'down center'
p732
sg9
g28
sg11
g29
sg13
S'0x7c'
p733
sg15
S'29/30'
p734
sg17
g728
sg18
S'0x10'
p735
sg20
g21
ssS'344634372'
p736
(dp737
g3
g24
sg5
S'1336'
p738
sS'FEC FED crate'
p739
S'bottom'
p740
sg9
g66
sg11
S'10'
p741
sg13
S'0x7c'
p742
sg15
S'37/38'
p743
sg17
g736
sg18
S'0x11'
p744
sg20
g21
ssS'352897028'
p745
(dp746
g3
g24
sg5
S'1311'
p747
sS'FEC FED crate'
p748
S'up center'
p749
sg9
g38
sg11
S'10'
p750
sg13
S'0x7e'
p751
sg15
S'39/40'
p752
sg17
g745
sg18
S'0x11'
p753
sg20
g21
ssS'353321988'
p754
(dp755
g3
g4
sg5
S'1301'
p756
sS'FEC FED crate'
p757
S'top'
p758
sg9
g10
sg11
g29
sg13
S'0x7b'
p759
sg15
S'17/18'
p760
sg17
g754
sg18
S'0x12'
p761
sg20
g21
ssS'353256452'
p762
(dp763
g3
g24
sg5
S'1309'
p764
sS'FEC FED crate'
p765
S'up center'
p766
sg9
g47
sg11
g29
sg13
S'0x7c'
p767
sg15
S'45/46'
p768
sg17
g762
sg18
S'0x12'
p769
sg20
g21
ssS'344863748'
p770
(dp771
g3
g24
sg5
S'1333'
p772
sS'FEC FED crate'
p773
S'bottom'
p774
sg9
g47
sg11
g29
sg13
S'0x7d'
p775
sg15
S'45/46'
p776
sg17
g770
sg18
S'0x12'
p777
sg20
g21
ssS'352736260'
p778
(dp779
g3
g4
sg5
S'1310'
p780
sS'FEC FED crate'
p781
S'up center'
p782
sg9
g28
sg11
g29
sg13
S'0x7c'
p783
sg15
S'5/6'
p784
sg17
g778
sg18
S'0x10'
p785
sg20
g21
ssS'344527876'
p786
(dp787
g3
g24
sg5
S'1338'
p788
sS'FEC FED crate'
p789
S'bottom'
p790
sg9
g56
sg11
S'10'
p791
sg13
S'0x7b'
p792
sg15
S'37/38'
p793
sg17
g786
sg18
S'0x11'
p794
sg20
g21
ssS'352974852'
p795
(dp796
g3
g4
sg5
S'1296'
p797
sS'FEC FED crate'
p798
S'top'
p799
sg9
g84
sg11
g29
sg13
S'0x7d'
p800
sg15
S'15/16'
p801
sg17
g795
sg18
S'0x11'
p802
sg20
g21
ssS'352773124'
p803
(dp804
g3
g24
sg5
S'1313'
p805
sS'FEC FED crate'
p806
S'up center'
p807
sg9
g10
sg11
S'10'
p808
sg13
S'0x7d'
p809
sg15
S'29/30'
p810
sg17
g803
sg18
S'0x10'
p811
sg20
g21
ssS'352811012'
p812
(dp813
g3
g4
sg5
S'1300'
p814
sS'FEC FED crate'
p815
S'top'
p816
sg9
g66
sg11
S'10'
p817
sg13
S'0x7c'
p818
sg15
S'3/4'
p819
sg17
g812
sg18
S'0x10'
p820
sg20
g21
ssS'344314884'
p821
(dp822
g3
g4
sg5
S'1321'
p823
sS'FEC FED crate'
p824
S'down center'
p825
sg9
g47
sg11
g29
sg13
S'0x7b'
p826
sg15
S'1/2'
p827
sg17
g821
sg18
S'0x10'
p828
sg20
g21
ssS'344417284'
p829
(dp830
g3
g24
sg5
S'1324'
p831
sS'FEC FED crate'
p832
S'down center'
p833
sg9
g66
sg11
S'10'
p834
sg13
S'0x7e'
p835
sg15
S'25/26'
p836
sg17
g829
sg18
S'0x10'
p837
sg20
g21
ssS'352880644'
p838
(dp839
g3
g24
sg5
S'1308'
p840
sS'FEC FED crate'
p841
S'up center'
p842
sg9
g84
sg11
g29
sg13
S'0x7b'
p843
sg15
S'39/40'
p844
sg17
g838
sg18
S'0x11'
p845
sg20
g21
ssS'352719876'
p846
(dp847
g3
g24
sg5
S'1308'
p848
sS'FEC FED crate'
p849
S'up center'
p850
sg9
g84
sg11
g29
sg13
S'0x7b'
p851
sg15
S'25/26'
p852
sg17
g846
sg18
S'0x10'
p853
sg20
g21
ssS'352969732'
p854
(dp855
g3
g24
sg5
S'1296'
p856
sS'FEC FED crate'
p857
S'top'
p858
sg9
g84
sg11
g29
sg13
S'0x7d'
p859
sg15
S'37/38'
p860
sg17
g854
sg18
S'0x11'
p861
sg20
g21
ssS'344306692'
p862
(dp863
g3
g24
sg5
S'1321'
p864
sS'FEC FED crate'
p865
S'down center'
p866
sg9
g47
sg11
g29
sg13
S'0x7c'
p867
sg15
S'29/30'
p868
sg17
g862
sg18
S'0x10'
p869
sg20
g21
ssS'344650756'
p870
(dp871
g3
g4
sg5
S'1338'
p872
sS'FEC FED crate'
p873
S'bottom'
p874
sg9
g56
sg11
S'10'
p875
sg13
S'0x7b'
p876
sg15
S'9/10'
p877
sg17
g870
sg18
S'0x11'
p878
sg20
g21
ssS'344773636'
p879
(dp880
g3
g24
sg5
S'1335'
p881
sS'FEC FED crate'
p882
S'bottom'
p883
sg9
g38
sg11
g29
sg13
S'0x7c'
p884
sg15
S'41/42'
p885
sg17
g879
sg18
S'0x12'
p886
sg20
g21
ssS'344826884'
p887
(dp888
g3
g4
sg5
S'1322'
p889
sS'FEC FED crate'
p890
S'down center'
p891
sg9
g28
sg11
g29
sg13
S'0x7c'
p892
sg15
S'21/22'
p893
sg17
g887
sg18
S'0x12'
p894
sg20
g21
ssS'353150980'
p895
(dp896
g3
g4
sg5
S'1310'
p897
sS'FEC FED crate'
p898
S'up center'
p899
sg9
g28
sg11
g29
sg13
S'0x7c'
p900
sg15
S'19/20'
p901
sg17
g895
sg18
S'0x12'
p902
sg20
g21
ssS'344848388'
p903
(dp904
g3
g4
sg5
S'1320'
p905
sS'FEC FED crate'
p906
S'down center'
p907
sg9
g84
sg11
g29
sg13
S'0x7b'
p908
sg15
S'19/20'
p909
sg17
g903
sg18
S'0x12'
p910
sg20
g21
ssS'352729092'
p911
(dp912
g3
g24
sg5
S'1309'
p913
sS'FEC FED crate'
p914
S'up center'
p915
sg9
g47
sg11
g29
sg13
S'0x7b'
p916
sg15
S'27/28'
p917
sg17
g911
sg18
S'0x10'
p918
sg20
g21
ssS'344799236'
p919
(dp920
g3
g4
sg5
S'1326'
p921
sS'FEC FED crate'
p922
S'down center'
p923
sg9
g56
sg11
g29
sg13
S'0x7d'
p924
sg15
S'19/20'
p925
sg17
g919
sg18
S'0x12'
p926
sg20
g21
ssS'344876036'
p927
(dp928
g3
g24
sg5
S'1334'
p929
sS'FEC FED crate'
p930
S'bottom'
p931
sg9
g28
sg11
g29
sg13
S'0x7e'
p932
sg15
S'41/42'
p933
sg17
g927
sg18
S'0x12'
p934
sg20
g21
ssS'344897540'
p935
(dp936
g3
g24
sg5
S'1336'
p937
sS'FEC FED crate'
p938
S'bottom'
p939
sg9
g66
sg11
g29
sg13
S'0x7c'
p940
sg15
S'47/48'
p941
sg17
g935
sg18
S'0x12'
p942
sg20
g21
ssS'352999428'
p943
(dp944
g3
g4
sg5
S'1310'
p945
sS'FEC FED crate'
p946
S'up center'
p947
sg9
g28
sg11
g29
sg13
S'0x7c'
p948
sg15
S'15/16'
p949
sg17
g943
sg18
S'0x11'
p950
sg20
g21
ssS'344672260'
p951
(dp952
g3
g4
sg5
S'1325'
p953
sS'FEC FED crate'
p954
S'down center'
p955
sg9
g10
sg11
S'10'
p956
sg13
S'0x7d'
p957
sg15
S'15/16'
p958
sg17
g951
sg18
S'0x11'
p959
sg20
g21
ssS'344946692'
p960
(dp961
g3
g4
sg5
S'1324'
p962
sS'FEC FED crate'
p963
S'down center'
p964
sg9
g66
sg11
g29
sg13
S'0x7e'
p965
sg15
S'19/20'
p966
sg17
g960
sg18
S'0x12'
p967
sg20
g21
ssS'344516612'
p968
(dp969
g3
g24
sg5
S'1336'
p970
sS'FEC FED crate'
p971
S'bottom'
p972
sg9
g66
sg11
S'10'
p973
sg13
S'0x7c'
p974
sg15
S'35/36'
p975
sg17
g968
sg18
S'0x11'
p976
sg20
g21
ssS'344340484'
p977
(dp978
g3
g24
sg5
S'1333'
p979
sS'FEC FED crate'
p980
S'bottom'
p981
sg9
g47
sg11
g29
sg13
S'0x7d'
p982
sg15
S'31/32'
p983
sg17
g977
sg18
S'0x10'
p984
sg20
g21
ssS'353285124'
p985
(dp986
g3
g24
sg5
S'1312'
p987
sS'FEC FED crate'
p988
S'up center'
p989
sg9
g66
sg11
g29
sg13
S'0x7e'
p990
sg15
S'41/42'
p991
sg17
g985
sg18
S'0x12'
p992
sg20
g21
ssS'344609796'
p993
(dp994
g3
g4
sg5
S'1334'
p995
sS'FEC FED crate'
p996
S'bottom'
p997
sg9
g28
sg11
g29
sg13
S'0x7e'
p998
sg15
S'9/10'
p999
sg17
g993
sg18
S'0x11'
p1000
sg20
g21
ssS'344852484'
p1001
(dp1002
g3
g4
sg5
S'1332'
p1003
sS'FEC FED crate'
p1004
S'bottom'
p1005
sg9
g84
sg11
g29
sg13
S'0x7d'
p1006
sg15
S'23/24'
p1007
sg17
g1001
sg18
S'0x12'
p1008
sg20
g21
ssS'353317892'
p1009
(dp1010
g3
g24
sg5
S'1301'
p1011
sS'FEC FED crate'
p1012
S'top'
p1013
sg9
g10
sg11
g29
sg13
S'0x7b'
p1014
sg15
S'41/42'
p1015
sg17
g1009
sg18
S'0x12'
p1016
sg20
g21
ssS'353244164'
p1017
(dp1018
g3
g24
sg5
S'1308'
p1019
sS'FEC FED crate'
p1020
S'up center'
p1021
sg9
g84
sg11
g29
sg13
S'0x7b'
p1022
sg15
S'41/42'
p1023
sg17
g1017
sg18
S'0x12'
p1024
sg20
g21
ssS'353010692'
p1025
(dp1026
g3
g4
sg5
S'1311'
p1027
sS'FEC FED crate'
p1028
S'up center'
p1029
sg9
g38
sg11
g29
sg13
S'0x7c'
p1030
sg15
S'13/14'
p1031
sg17
g1025
sg18
S'0x11'
p1032
sg20
g21
ssS'344786948'
p1033
(dp1034
g3
g4
sg5
S'1338'
p1035
sS'FEC FED crate'
p1036
S'bottom'
p1037
sg9
g56
sg11
g29
sg13
S'0x7b'
p1038
sg15
S'23/24'
p1039
sg17
g1033
sg18
S'0x12'
p1040
sg20
g21
ssS'352613380'
p1041
(dp1042
g3
g4
sg5
S'1308'
p1043
sS'FEC FED crate'
p1044
S'up center'
p1045
sg9
g84
sg11
g29
sg13
S'0x7b'
p1046
sg15
S'5/6'
p1047
sg17
g1041
sg18
S'0x10'
p1048
sg20
g21
ssS'344811524'
p1049
(dp1050
g3
g4
sg5
S'1324'
p1051
sS'FEC FED crate'
p1052
S'down center'
p1053
sg9
g66
sg11
g29
sg13
S'0x7e'
p1054
sg15
S'23/24'
p1055
sg17
g1049
sg18
S'0x12'
p1056
sg20
g21
ssS'344347652'
p1057
(dp1058
g3
g4
sg5
S'1334'
p1059
sS'FEC FED crate'
p1060
S'bottom'
p1061
sg9
g28
sg11
g29
sg13
S'0x7e'
p1062
sg15
S'1/2'
p1063
sg17
g1057
sg18
S'0x10'
p1064
sg20
g21
ssS'352617476'
p1065
(dp1066
g3
g24
sg5
S'1308'
p1067
sS'FEC FED crate'
p1068
S'up center'
p1069
sg9
g84
sg11
g29
sg13
S'0x7b'
p1070
sg15
S'29/30'
p1071
sg17
g1065
sg18
S'0x10'
p1072
sg20
g21
ssS'344908804'
p1073
(dp1074
g3
g24
sg5
S'1337'
p1075
sS'FEC FED crate'
p1076
S'bottom'
p1077
sg9
g10
sg11
g29
sg13
S'0x7b'
p1078
sg15
S'41/42'
p1079
sg17
g1073
sg18
S'0x12'
p1080
sg20
g21
ssS'344872964'
p1081
(dp1082
g3
g4
sg5
S'1334'
p1083
sS'FEC FED crate'
p1084
S'bottom'
p1085
sg9
g28
sg11
g29
sg13
S'0x7e'
p1086
sg15
S'19/20'
p1087
sg17
g1081
sg18
S'0x12'
p1088
sg20
g21
ssS'353223684'
p1089
(dp1090
g3
g24
sg5
S'1297'
p1091
sS'FEC FED crate'
p1092
S'top'
p1093
sg9
g47
sg11
g29
sg13
S'0x7d'
p1094
sg15
S'45/46'
p1095
sg17
g1089
sg18
S'0x12'
p1096
sg20
g21
ssS'344929284'
p1097
(dp1098
g3
g24
sg5
S'1325'
p1099
sS'FEC FED crate'
p1100
S'down center'
p1101
sg9
g10
sg11
g29
sg13
S'0x7d'
p1102
sg15
S'45/46'
p1103
sg17
g1097
sg18
S'0x12'
p1104
sg20
g21
ssS'352872452'
p1105
(dp1106
g3
g4
sg5
S'1296'
p1107
sS'FEC FED crate'
p1108
S'top'
p1109
sg9
g84
sg11
g29
sg13
S'0x7d'
p1110
sg15
S'11/12'
p1111
sg17
g1105
sg18
S'0x11'
p1112
sg20
g21
ssS'353003524'
p1113
(dp1114
g3
g24
sg5
S'1310'
p1115
sS'FEC FED crate'
p1116
S'up center'
p1117
sg9
g28
sg11
g29
sg13
S'0x7c'
p1118
sg15
S'35/36'
p1119
sg17
g1113
sg18
S'0x11'
p1120
sg20
g21
ssS'352666628'
p1121
(dp1122
g3
g24
sg5
S'1301'
p1123
sS'FEC FED crate'
p1124
S'top'
p1125
sg9
g10
sg11
S'10'
p1126
sg13
S'0x7b'
p1127
sg15
S'29/30'
p1128
sg17
g1121
sg18
S'0x10'
p1129
sg20
g21
ssS'353036292'
p1130
(dp1131
g3
g24
sg5
S'1313'
p1132
sS'FEC FED crate'
p1133
S'up center'
p1134
sg9
g10
sg11
S'10'
p1135
sg13
S'0x7d'
p1136
sg15
S'39/40'
p1137
sg17
g1130
sg18
S'0x11'
p1138
sg20
g21
ssS'352748548'
p1139
(dp1140
g3
g4
sg5
S'1311'
p1141
sS'FEC FED crate'
p1142
S'up center'
p1143
sg9
g38
sg11
g29
sg13
S'0x7c'
p1144
sg15
S'5/6'
p1145
sg17
g1139
sg18
S'0x10'
p1146
sg20
g21
ssS'352785412'
p1147
(dp1148
g3
g24
sg5
S'1302'
p1149
sS'FEC FED crate'
p1150
S'top'
p1151
sg9
g56
sg11
S'10'
p1152
sg13
S'0x7b'
p1153
sg15
S'25/26'
p1154
sg17
g1147
sg18
S'0x10'
p1155
sg20
g21
ssS'344400900'
p1156
(dp1157
g3
g4
sg5
S'1326'
p1158
sS'FEC FED crate'
p1159
S'down center'
p1160
sg9
g56
sg11
S'10'
p1161
sg13
S'0x7d'
p1162
sg15
S'5/6'
p1163
sg17
g1156
sg18
S'0x10'
p1164
sg20
g21
ssS'352867332'
p1165
(dp1166
g3
g24
sg5
S'1296'
p1167
sS'FEC FED crate'
p1168
S'top'
p1169
sg9
g84
sg11
g29
sg13
S'0x7d'
p1170
sg15
S'33/34'
p1171
sg17
g1165
sg18
S'0x11'
p1172
sg20
g21
ssS'352728068'
p1173
(dp1174
g3
g24
sg5
S'1309'
p1175
sS'FEC FED crate'
p1176
S'up center'
p1177
sg9
g47
sg11
g29
sg13
S'0x7b'
p1178
sg15
S'25/26'
p1179
sg17
g1173
sg18
S'0x10'
p1180
sg20
g21
ssS'352778244'
p1181
(dp1182
g3
g4
sg5
S'1314'
p1183
sS'FEC FED crate'
p1184
S'up center'
p1185
sg9
g56
sg11
S'10'
p1186
sg13
S'0x7d'
p1187
sg15
S'7/8'
p1188
sg17
g1181
sg18
S'0x10'
p1189
sg20
g21
ssS'353339396'
p1190
(dp1191
g3
g4
sg5
S'1300'
p1192
sS'FEC FED crate'
p1193
S'top'
p1194
sg9
g66
sg11
g29
sg13
S'0x7c'
p1195
sg15
S'23/24'
p1196
sg17
g1190
sg18
S'0x12'
p1197
sg20
g21
ssS'352769028'
p1198
(dp1199
g3
g4
sg5
S'1313'
p1200
sS'FEC FED crate'
p1201
S'up center'
p1202
sg9
g10
sg11
S'10'
p1203
sg13
S'0x7d'
p1204
sg15
S'5/6'
p1205
sg17
g1198
sg18
S'0x10'
p1206
sg20
g21
ssS'344205316'
p1207
(dp1208
g3
g4
sg5
S'1323'
p1209
sS'FEC FED crate'
p1210
S'down center'
p1211
sg9
g38
sg11
g29
sg13
S'0x7c'
p1212
sg15
S'3/4'
p1213
sg17
g1207
sg18
S'0x10'
p1214
sg20
g21
ssS'344851460'
p1215
(dp1216
g3
g4
sg5
S'1332'
p1217
sS'FEC FED crate'
p1218
S'bottom'
p1219
sg9
g84
sg11
g29
sg13
S'0x7d'
p1220
sg15
S'21/22'
p1221
sg17
g1215
sg18
S'0x12'
p1222
sg20
g21
ssS'353137668'
p1223
(dp1224
g3
g4
sg5
S'1308'
p1225
sS'FEC FED crate'
p1226
S'up center'
p1227
sg9
g84
sg11
g29
sg13
S'0x7b'
p1228
sg15
S'21/22'
p1229
sg17
g1223
sg18
S'0x12'
p1230
sg20
g21
ssS'352671748'
p1231
(dp1232
g3
g24
sg5
S'1300'
p1233
sS'FEC FED crate'
p1234
S'top'
p1235
sg9
g66
sg11
S'10'
p1236
sg13
S'0x7c'
p1237
sg15
S'27/28'
p1238
sg17
g1231
sg18
S'0x10'
p1239
sg20
g21
ssS'352863236'
p1240
(dp1241
g3
g4
sg5
S'1297'
p1242
sS'FEC FED crate'
p1243
S'top'
p1244
sg9
g47
sg11
g29
sg13
S'0x7d'
p1245
sg15
S'9/10'
p1246
sg17
g1240
sg18
S'0x11'
p1247
sg20
g21
ssS'344290308'
p1248
(dp1249
g3
g4
sg5
S'1323'
p1250
sS'FEC FED crate'
p1251
S'down center'
p1252
sg9
g38
sg11
g29
sg13
S'0x7c'
p1253
sg15
S'5/6'
p1254
sg17
g1248
sg18
S'0x10'
p1255
sg20
g21
ssS'353309700'
p1256
(dp1257
g3
g24
sg5
S'1302'
p1258
sS'FEC FED crate'
p1259
S'top'
p1260
sg9
g56
sg11
g29
sg13
S'0x7b'
p1261
sg15
S'41/42'
p1262
sg17
g1256
sg18
S'0x12'
p1263
sg20
g21
ssS'352761860'
p1264
(dp1265
g3
g24
sg5
S'1312'
p1266
sS'FEC FED crate'
p1267
S'up center'
p1268
sg9
g66
sg11
S'10'
p1269
sg13
S'0x7e'
p1270
sg15
S'27/28'
p1271
sg17
g1264
sg18
S'0x10'
p1272
sg20
g21
ssS'353298436'
p1273
(dp1274
g3
g24
sg5
S'1313'
p1275
sS'FEC FED crate'
p1276
S'up center'
p1277
sg9
g10
sg11
g29
sg13
S'0x7d'
p1278
sg15
S'47/48'
p1279
sg17
g1273
sg18
S'0x12'
p1280
sg20
g21
ssS'344242180'
p1281
(dp1282
g3
g24
sg5
S'1334'
p1283
sS'FEC FED crate'
p1284
S'bottom'
p1285
sg9
g28
sg11
g29
sg13
S'0x7e'
p1286
sg15
S'31/32'
p1287
sg17
g1281
sg18
S'0x10'
p1288
sg20
g21
ssS'344937476'
p1289
(dp1290
g3
g4
sg5
S'1325'
p1291
sS'FEC FED crate'
p1292
S'down center'
p1293
sg9
g10
sg11
g29
sg13
S'0x7e'
p1294
sg15
S'17/18'
p1295
sg17
g1289
sg18
S'0x12'
p1296
sg20
g21
ssS'353195012'
p1297
(dp1298
g3
g24
sg5
S'1300'
p1299
sS'FEC FED crate'
p1300
S'top'
p1301
sg9
g66
sg11
g29
sg13
S'0x7c'
p1302
sg15
S'41/42'
p1303
sg17
g1297
sg18
S'0x12'
p1304
sg20
g21
ssS'353310724'
p1305
(dp1306
g3
g24
sg5
S'1302'
p1307
sS'FEC FED crate'
p1308
S'top'
p1309
sg9
g56
sg11
g29
sg13
S'0x7b'
p1310
sg15
S'43/44'
p1311
sg17
g1305
sg18
S'0x12'
p1312
sg20
g21
ssS'344818692'
p1313
(dp1314
g3
g24
sg5
S'1322'
p1315
sS'FEC FED crate'
p1316
S'down center'
p1317
sg9
g28
sg11
g29
sg13
S'0x7c'
p1318
sg15
S'45/46'
p1319
sg17
g1313
sg18
S'0x12'
p1320
sg20
g21
ssS'344544260'
p1321
(dp1322
g3
g24
sg5
S'1324'
p1323
sS'FEC FED crate'
p1324
S'down center'
p1325
sg9
g66
sg11
S'10'
p1326
sg13
S'0x7e'
p1327
sg15
S'37/38'
p1328
sg17
g1321
sg18
S'0x11'
p1329
sg20
g21
ssS'344238084'
p1330
(dp1331
g3
g4
sg5
S'1334'
p1332
sS'FEC FED crate'
p1333
S'bottom'
p1334
sg9
g28
sg11
g29
sg13
S'0x7e'
p1335
sg15
S'7/8'
p1336
sg17
g1330
sg18
S'0x10'
p1337
sg20
g21
ssS'353326084'
p1338
(dp1339
g3
g4
sg5
S'1301'
p1340
sS'FEC FED crate'
p1341
S'top'
p1342
sg9
g10
sg11
g29
sg13
S'0x7c'
p1343
sg15
S'21/22'
p1344
sg17
g1338
sg18
S'0x12'
p1345
sg20
g21
ssS'353268740'
p1346
(dp1347
g3
g24
sg5
S'1310'
p1348
sS'FEC FED crate'
p1349
S'up center'
p1350
sg9
g28
sg11
g29
sg13
S'0x7c'
p1351
sg15
S'45/46'
p1352
sg17
g1346
sg18
S'0x12'
p1353
sg20
g21
ssS'352633860'
p1354
(dp1355
g3
g24
sg5
S'1311'
p1356
sS'FEC FED crate'
p1357
S'up center'
p1358
sg9
g38
sg11
S'10'
p1359
sg13
S'0x7e'
p1360
sg15
S'29/30'
p1361
sg17
g1354
sg18
S'0x10'
p1362
sg20
g21
ssS'352708612'
p1363
(dp1364
g3
g24
sg5
S'1296'
p1365
sS'FEC FED crate'
p1366
S'top'
p1367
sg9
g84
sg11
g29
sg13
S'0x7d'
p1368
sg15
S'31/32'
p1369
sg17
g1363
sg18
S'0x10'
p1370
sg20
g21
ssS'352744452'
p1371
(dp1372
g3
g24
sg5
S'1310'
p1373
sS'FEC FED crate'
p1374
S'up center'
p1375
sg9
g28
sg11
g29
sg13
S'0x7c'
p1376
sg15
S'29/30'
p1377
sg17
g1371
sg18
S'0x10'
p1378
sg20
g21
ssS'344257540'
p1379
(dp1380
g3
g24
sg5
S'1337'
p1381
sS'FEC FED crate'
p1382
S'bottom'
p1383
sg9
g10
sg11
S'10'
p1384
sg13
S'0x7b'
p1385
sg15
S'29/30'
p1386
sg17
g1379
sg18
S'0x10'
p1387
sg20
g21
ssS'353019908'
p1388
(dp1389
g3
g4
sg5
S'1312'
p1390
sS'FEC FED crate'
p1391
S'up center'
p1392
sg9
g66
sg11
S'10'
p1393
sg13
S'0x7e'
p1394
sg15
S'11/12'
p1395
sg17
g1388
sg18
S'0x11'
p1396
sg20
g21
ssS'352809988'
p1397
(dp1398
g3
g4
sg5
S'1300'
p1399
sS'FEC FED crate'
p1400
S'top'
p1401
sg9
g66
sg11
S'10'
p1402
sg13
S'0x7c'
p1403
sg15
S'1/2'
p1404
sg17
g1397
sg18
S'0x10'
p1405
sg20
g21
ssS'344372228'
p1406
(dp1407
g3
g24
sg5
S'1336'
p1408
sS'FEC FED crate'
p1409
S'bottom'
p1410
sg9
g66
sg11
S'10'
p1411
sg13
S'0x7c'
p1412
sg15
S'29/30'
p1413
sg17
g1406
sg18
S'0x10'
p1414
sg20
g21
ssS'344508420'
p1415
(dp1416
g3
g4
sg5
S'1335'
p1417
sS'FEC FED crate'
p1418
S'bottom'
p1419
sg9
g38
sg11
g29
sg13
S'0x7e'
p1420
sg15
S'15/16'
p1421
sg17
g1415
sg18
S'0x11'
p1422
sg20
g21
ssS'344806404'
p1423
(dp1424
g3
g24
sg5
S'1324'
p1425
sS'FEC FED crate'
p1426
S'down center'
p1427
sg9
g66
sg11
g29
sg13
S'0x7e'
p1428
sg15
S'45/46'
p1429
sg17
g1423
sg18
S'0x12'
p1430
sg20
g21
ssS'352770052'
p1431
(dp1432
g3
g4
sg5
S'1313'
p1433
sS'FEC FED crate'
p1434
S'up center'
p1435
sg9
g10
sg11
S'10'
p1436
sg13
S'0x7d'
p1437
sg15
S'7/8'
p1438
sg17
g1431
sg18
S'0x10'
p1439
sg20
g21
ssS'344889348'
p1440
(dp1441
g3
g4
sg5
S'1336'
p1442
sS'FEC FED crate'
p1443
S'bottom'
p1444
sg9
g66
sg11
g29
sg13
S'0x7c'
p1445
sg15
S'23/24'
p1446
sg17
g1440
sg18
S'0x12'
p1447
sg20
g21
ssS'344855556'
p1448
(dp1449
g3
g24
sg5
S'1332'
p1450
sS'FEC FED crate'
p1451
S'bottom'
p1452
sg9
g84
sg11
g29
sg13
S'0x7d'
p1453
sg15
S'45/46'
p1454
sg17
g1448
sg18
S'0x12'
p1455
sg20
g21
ssS'353027076'
p1456
(dp1457
g3
g4
sg5
S'1313'
p1458
sS'FEC FED crate'
p1459
S'up center'
p1460
sg9
g10
sg11
S'10'
p1461
sg13
S'0x7e'
p1462
sg15
S'9/10'
p1463
sg17
g1456
sg18
S'0x11'
p1464
sg20
g21
ssS'353289220'
p1465
(dp1466
g3
g4
sg5
S'1313'
p1467
sS'FEC FED crate'
p1468
S'up center'
p1469
sg9
g10
sg11
g29
sg13
S'0x7e'
p1470
sg15
S'17/18'
p1471
sg17
g1465
sg18
S'0x12'
p1472
sg20
g21
ssS'352789508'
p1473
(dp1474
g3
g4
sg5
S'1302'
p1475
sS'FEC FED crate'
p1476
S'top'
p1477
sg9
g56
sg11
S'10'
p1478
sg13
S'0x7b'
p1479
sg15
S'1/2'
p1480
sg17
g1473
sg18
S'0x10'
p1481
sg20
g21
ssS'344466436'
p1482
(dp1483
g3
g4
sg5
S'1323'
p1484
sS'FEC FED crate'
p1485
S'down center'
p1486
sg9
g38
sg11
g29
sg13
S'0x7c'
p1487
sg15
S'9/10'
p1488
sg17
g1482
sg18
S'0x11'
p1489
sg20
g21
ssS'344471556'
p1490
(dp1491
g3
g4
sg5
S'1322'
p1492
sS'FEC FED crate'
p1493
S'down center'
p1494
sg9
g28
sg11
g29
sg13
S'0x7c'
p1495
sg15
S'11/12'
p1496
sg17
g1490
sg18
S'0x11'
p1497
sg20
g21
ssS'352703492'
p1498
(dp1499
g3
g4
sg5
S'1297'
p1500
sS'FEC FED crate'
p1501
S'top'
p1502
sg9
g47
sg11
g29
sg13
S'0x7d'
p1503
sg15
S'5/6'
p1504
sg17
g1498
sg18
S'0x10'
p1505
sg20
g21
ssS'353159172'
p1506
(dp1507
g3
g24
sg5
S'1311'
p1508
sS'FEC FED crate'
p1509
S'up center'
p1510
sg9
g38
sg11
g29
sg13
S'0x7e'
p1511
sg15
S'47/48'
p1512
sg17
g1506
sg18
S'0x12'
p1513
sg20
g21
ssS'344492036'
p1514
(dp1515
g3
g24
sg5
S'1332'
p1516
sS'FEC FED crate'
p1517
S'bottom'
p1518
sg9
g84
sg11
g29
sg13
S'0x7d'
p1519
sg15
S'35/36'
p1520
sg17
g1514
sg18
S'0x11'
p1521
sg20
g21
ssS'353158148'
p1522
(dp1523
g3
g24
sg5
S'1311'
p1524
sS'FEC FED crate'
p1525
S'up center'
p1526
sg9
g38
sg11
g29
sg13
S'0x7e'
p1527
sg15
S'45/46'
p1528
sg17
g1522
sg18
S'0x12'
p1529
sg20
g21
ssS'353252356'
p1530
(dp1531
g3
g24
sg5
S'1309'
p1532
sS'FEC FED crate'
p1533
S'up center'
p1534
sg9
g47
sg11
g29
sg13
S'0x7b'
p1535
sg15
S'41/42'
p1536
sg17
g1530
sg18
S'0x12'
p1537
sg20
g21
ssS'353257476'
p1538
(dp1539
g3
g24
sg5
S'1309'
p1540
sS'FEC FED crate'
p1541
S'up center'
p1542
sg9
g47
sg11
g29
sg13
S'0x7c'
p1543
sg15
S'47/48'
p1544
sg17
g1538
sg18
S'0x12'
p1545
sg20
g21
ssS'352707588'
p1546
(dp1547
g3
g24
sg5
S'1296'
p1548
sS'FEC FED crate'
p1549
S'top'
p1550
sg9
g84
sg11
g29
sg13
S'0x7d'
p1551
sg15
S'29/30'
p1552
sg17
g1546
sg18
S'0x10'
p1553
sg20
g21
ssS'344590340'
p1554
(dp1555
g3
g4
sg5
S'1332'
p1556
sS'FEC FED crate'
p1557
S'bottom'
p1558
sg9
g84
sg11
g29
sg13
S'0x7d'
p1559
sg15
S'15/16'
p1560
sg17
g1554
sg18
S'0x11'
p1561
sg20
g21
ssS'352957444'
p1562
(dp1563
g3
g24
sg5
S'1297'
p1564
sS'FEC FED crate'
p1565
S'top'
p1566
sg9
g47
sg11
g29
sg13
S'0x7e'
p1567
sg15
S'33/34'
p1568
sg17
g1562
sg18
S'0x11'
p1569
sg20
g21
ssS'352958468'
p1570
(dp1571
g3
g24
sg5
S'1297'
p1572
sS'FEC FED crate'
p1573
S'top'
p1574
sg9
g47
sg11
g29
sg13
S'0x7e'
p1575
sg15
S'35/36'
p1576
sg17
g1570
sg18
S'0x11'
p1577
sg20
g21
ssS'344545284'
p1578
(dp1579
g3
g24
sg5
S'1324'
p1580
sS'FEC FED crate'
p1581
S'down center'
p1582
sg9
g66
sg11
S'10'
p1583
sg13
S'0x7e'
p1584
sg15
S'39/40'
p1585
sg17
g1578
sg18
S'0x11'
p1586
sg20
g21
ssS'344904708'
p1587
(dp1588
g3
g4
sg5
S'1337'
p1589
sS'FEC FED crate'
p1590
S'bottom'
p1591
sg9
g10
sg11
g29
sg13
S'0x7b'
p1592
sg15
S'17/18'
p1593
sg17
g1587
sg18
S'0x12'
p1594
sg20
g21
ssS'344241156'
p1595
(dp1596
g3
g24
sg5
S'1334'
p1597
sS'FEC FED crate'
p1598
S'bottom'
p1599
sg9
g28
sg11
g29
sg13
S'0x7e'
p1600
sg15
S'29/30'
p1601
sg17
g1595
sg18
S'0x10'
p1602
sg20
g21
ssS'352634884'
p1603
(dp1604
g3
g24
sg5
S'1311'
p1605
sS'FEC FED crate'
p1606
S'up center'
p1607
sg9
g38
sg11
S'10'
p1608
sg13
S'0x7e'
p1609
sg15
S'31/32'
p1610
sg17
g1603
sg18
S'0x10'
p1611
sg20
g21
ssS'352876548'
p1612
(dp1613
g3
g4
sg5
S'1308'
p1614
sS'FEC FED crate'
p1615
S'up center'
p1616
sg9
g84
sg11
g29
sg13
S'0x7b'
p1617
sg15
S'15/16'
p1618
sg17
g1612
sg18
S'0x11'
p1619
sg20
g21
ssS'352614404'
p1620
(dp1621
g3
g4
sg5
S'1308'
p1622
sS'FEC FED crate'
p1623
S'up center'
p1624
sg9
g84
sg11
g29
sg13
S'0x7b'
p1625
sg15
S'7/8'
p1626
sg17
g1620
sg18
S'0x10'
p1627
sg20
g21
ssS'353248260'
p1628
(dp1629
g3
g4
sg5
S'1309'
p1630
sS'FEC FED crate'
p1631
S'up center'
p1632
sg9
g47
sg11
g29
sg13
S'0x7b'
p1633
sg15
S'17/18'
p1634
sg17
g1628
sg18
S'0x12'
p1635
sg20
g21
ssS'344487940'
p1636
(dp1637
g3
g4
sg5
S'1332'
p1638
sS'FEC FED crate'
p1639
S'bottom'
p1640
sg9
g84
sg11
g29
sg13
S'0x7d'
p1641
sg15
S'11/12'
p1642
sg17
g1636
sg18
S'0x11'
p1643
sg20
g21
ssS'344901636'
p1644
(dp1645
g3
g4
sg5
S'1337'
p1646
sS'FEC FED crate'
p1647
S'bottom'
p1648
sg9
g10
sg11
g29
sg13
S'0x7c'
p1649
sg15
S'23/24'
p1650
sg17
g1644
sg18
S'0x12'
p1651
sg20
g21
ssS'352900100'
p1652
(dp1653
g3
g4
sg5
S'1312'
p1654
sS'FEC FED crate'
p1655
S'up center'
p1656
sg9
g66
sg11
S'10'
p1657
sg13
S'0x7e'
p1658
sg15
S'13/14'
p1659
sg17
g1652
sg18
S'0x11'
p1660
sg20
g21
ssS'344758276'
p1661
(dp1662
g3
g4
sg5
S'1333'
p1663
sS'FEC FED crate'
p1664
S'bottom'
p1665
sg9
g47
sg11
g29
sg13
S'0x7d'
p1666
sg15
S'19/20'
p1667
sg17
g1661
sg18
S'0x12'
p1668
sg20
g21
ssS'344830980'
p1669
(dp1670
g3
g24
sg5
S'1321'
p1671
sS'FEC FED crate'
p1672
S'down center'
p1673
sg9
g47
sg11
g29
sg13
S'0x7c'
p1674
sg15
S'45/46'
p1675
sg17
g1669
sg18
S'0x12'
p1676
sg20
g21
ssS'344331268'
p1677
(dp1678
g3
g24
sg5
S'1332'
p1679
sS'FEC FED crate'
p1680
S'bottom'
p1681
sg9
g84
sg11
g29
sg13
S'0x7d'
p1682
sg15
S'29/30'
p1683
sg17
g1677
sg18
S'0x10'
p1684
sg20
g21
ssS'344877060'
p1685
(dp1686
g3
g24
sg5
S'1334'
p1687
sS'FEC FED crate'
p1688
S'bottom'
p1689
sg9
g28
sg11
g29
sg13
S'0x7e'
p1690
sg15
S'43/44'
p1691
sg17
g1685
sg18
S'0x12'
p1692
sg20
g21
ssS'344835076'
p1693
(dp1694
g3
g24
sg5
S'1321'
p1695
sS'FEC FED crate'
p1696
S'down center'
p1697
sg9
g47
sg11
g29
sg13
S'0x7b'
p1698
sg15
S'41/42'
p1699
sg17
g1693
sg18
S'0x12'
p1700
sg20
g21
ssS'344560644'
p1701
(dp1702
g3
g24
sg5
S'1322'
p1703
sS'FEC FED crate'
p1704
S'down center'
p1705
sg9
g28
sg11
g29
sg13
S'0x7c'
p1706
sg15
S'33/34'
p1707
sg17
g1701
sg18
S'0x11'
p1708
sg20
g21
ssS'352674820'
p1709
(dp1710
g3
g24
sg5
S'1299'
p1711
sS'FEC FED crate'
p1712
S'top'
p1713
sg9
g38
sg11
S'10'
p1714
sg13
S'0x7c'
p1715
sg15
S'25/26'
p1716
sg17
g1709
sg18
S'0x10'
p1717
sg20
g21
ssS'344512516'
p1718
(dp1719
g3
g24
sg5
S'1335'
p1720
sS'FEC FED crate'
p1721
S'bottom'
p1722
sg9
g38
sg11
S'10'
p1723
sg13
S'0x7c'
p1724
sg15
S'35/36'
p1725
sg17
g1718
sg18
S'0x11'
p1726
sg20
g21
ssS'344359940'
p1727
(dp1728
g3
g24
sg5
S'1335'
p1729
sS'FEC FED crate'
p1730
S'bottom'
p1731
sg9
g38
sg11
S'10'
p1732
sg13
S'0x7c'
p1733
sg15
S'29/30'
p1734
sg17
g1727
sg18
S'0x10'
p1735
sg20
g21
ssS'352977924'
p1736
(dp1737
g3
g4
sg5
S'1308'
p1738
sS'FEC FED crate'
p1739
S'up center'
p1740
sg9
g84
sg11
g29
sg13
S'0x7b'
p1741
sg15
S'9/10'
p1742
sg17
g1736
sg18
S'0x11'
p1743
sg20
g21
ssS'352920580'
p1744
(dp1745
g3
g24
sg5
S'1302'
p1746
sS'FEC FED crate'
p1747
S'top'
p1748
sg9
g56
sg11
S'10'
p1749
sg13
S'0x7b'
p1750
sg15
S'37/38'
p1751
sg17
g1744
sg18
S'0x11'
p1752
sg20
g21
ssS'352905220'
p1753
(dp1754
g3
g24
sg5
S'1312'
p1755
sS'FEC FED crate'
p1756
S'up center'
p1757
sg9
g66
sg11
S'10'
p1758
sg13
S'0x7e'
p1759
sg15
S'39/40'
p1760
sg17
g1753
sg18
S'0x11'
p1761
sg20
g21
ssS'344261636'
p1762
(dp1763
g3
g4
sg5
S'1338'
p1764
sS'FEC FED crate'
p1765
S'bottom'
p1766
sg9
g56
sg11
S'10'
p1767
sg13
S'0x7b'
p1768
sg15
S'5/6'
p1769
sg17
g1762
sg18
S'0x10'
p1770
sg20
g21
ssS'352658436'
p1771
(dp1772
g3
g24
sg5
S'1302'
p1773
sS'FEC FED crate'
p1774
S'top'
p1775
sg9
g56
sg11
S'10'
p1776
sg13
S'0x7b'
p1777
sg15
S'29/30'
p1778
sg17
g1771
sg18
S'0x10'
p1779
sg20
g21
ssS'344384516'
p1780
(dp1781
g3
g24
sg5
S'1337'
p1782
sS'FEC FED crate'
p1783
S'bottom'
p1784
sg9
g10
sg11
S'10'
p1785
sg13
S'0x7b'
p1786
sg15
S'25/26'
p1787
sg17
g1780
sg18
S'0x10'
p1788
sg20
g21
ssS'353149956'
p1789
(dp1790
g3
g4
sg5
S'1310'
p1791
sS'FEC FED crate'
p1792
S'up center'
p1793
sg9
g28
sg11
g29
sg13
S'0x7c'
p1794
sg15
S'17/18'
p1795
sg17
g1789
sg18
S'0x12'
p1796
sg20
g21
ssS'344335364'
p1797
(dp1798
g3
g4
sg5
S'1333'
p1799
sS'FEC FED crate'
p1800
S'bottom'
p1801
sg9
g47
sg11
g29
sg13
S'0x7d'
p1802
sg15
S'5/6'
p1803
sg17
g1797
sg18
S'0x10'
p1804
sg20
g21
ssS'344774660'
p1805
(dp1806
g3
g24
sg5
S'1335'
p1807
sS'FEC FED crate'
p1808
S'bottom'
p1809
sg9
g38
sg11
g29
sg13
S'0x7c'
p1810
sg15
S'43/44'
p1811
sg17
g1805
sg18
S'0x12'
p1812
sg20
g21
ssS'353331204'
p1813
(dp1814
g3
g24
sg5
S'1300'
p1815
sS'FEC FED crate'
p1816
S'top'
p1817
sg9
g66
sg11
g29
sg13
S'0x7c'
p1818
sg15
S'47/48'
p1819
sg17
g1813
sg18
S'0x12'
p1820
sg20
g21
ssS'352637956'
p1821
(dp1822
g3
g4
sg5
S'1312'
p1823
sS'FEC FED crate'
p1824
S'up center'
p1825
sg9
g66
sg11
S'10'
p1826
sg13
S'0x7e'
p1827
sg15
S'5/6'
p1828
sg17
g1821
sg18
S'0x10'
p1829
sg20
g21
ssS'353261572'
p1830
(dp1831
g3
g4
sg5
S'1310'
p1832
sS'FEC FED crate'
p1833
S'up center'
p1834
sg9
g28
sg11
g29
sg13
S'0x7c'
p1835
sg15
S'23/24'
p1836
sg17
g1830
sg18
S'0x12'
p1837
sg20
g21
ssS'344573956'
p1838
(dp1839
g3
g24
sg5
S'1321'
p1840
sS'FEC FED crate'
p1841
S'down center'
p1842
sg9
g47
sg11
g29
sg13
S'0x7b'
p1843
sg15
S'35/36'
p1844
sg17
g1838
sg18
S'0x11'
p1845
sg20
g21
ssS'352740356'
p1846
(dp1847
g3
g24
sg5
S'1310'
p1848
sS'FEC FED crate'
p1849
S'up center'
p1850
sg9
g28
sg11
g29
sg13
S'0x7c'
p1851
sg15
S'25/26'
p1852
sg17
g1846
sg18
S'0x10'
p1853
sg20
g21
ssS'352941060'
p1854
(dp1855
g3
g24
sg5
S'1299'
p1856
sS'FEC FED crate'
p1857
S'top'
p1858
sg9
g38
sg11
S'10'
p1859
sg13
S'0x7c'
p1860
sg15
S'37/38'
p1861
sg17
g1854
sg18
S'0x11'
p1862
sg20
g21
ssS'344360964'
p1863
(dp1864
g3
g24
sg5
S'1335'
p1865
sS'FEC FED crate'
p1866
S'bottom'
p1867
sg9
g38
sg11
S'10'
p1868
sg13
S'0x7c'
p1869
sg15
S'31/32'
p1870
sg17
g1863
sg18
S'0x10'
p1871
sg20
g21
ssS'353301508'
p1872
(dp1873
g3
g4
sg5
S'1314'
p1874
sS'FEC FED crate'
p1875
S'up center'
p1876
sg9
g56
sg11
g29
sg13
S'0x7d'
p1877
sg15
S'21/22'
p1878
sg17
g1872
sg18
S'0x12'
p1879
sg20
g21
ssS'353302532'
p1880
(dp1881
g3
g4
sg5
S'1314'
p1882
sS'FEC FED crate'
p1883
S'up center'
p1884
sg9
g56
sg11
g29
sg13
S'0x7d'
p1885
sg15
S'23/24'
p1886
sg17
g1880
sg18
S'0x12'
p1887
sg20
g21
ssS'344577028'
p1888
(dp1889
g3
g4
sg5
S'1321'
p1890
sS'FEC FED crate'
p1891
S'down center'
p1892
sg9
g47
sg11
g29
sg13
S'0x7b'
p1893
sg15
S'9/10'
p1894
sg17
g1888
sg18
S'0x11'
p1895
sg20
g21
ssS'344840196'
p1896
(dp1897
g3
g4
sg5
S'1321'
p1898
sS'FEC FED crate'
p1899
S'down center'
p1900
sg9
g47
sg11
g29
sg13
S'0x7b'
p1901
sg15
S'19/20'
p1902
sg17
g1896
sg18
S'0x12'
p1903
sg20
g21
ssS'352991236'
p1904
(dp1905
g3
g24
sg5
S'1309'
p1906
sS'FEC FED crate'
p1907
S'up center'
p1908
sg9
g47
sg11
g29
sg13
S'0x7b'
p1909
sg15
S'35/36'
p1910
sg17
g1904
sg18
S'0x11'
p1911
sg20
g21
ssS'353186820'
p1912
(dp1913
g3
g4
sg5
S'1302'
p1914
sS'FEC FED crate'
p1915
S'top'
p1916
sg9
g56
sg11
g29
sg13
S'0x7b'
p1917
sg15
S'21/22'
p1918
sg17
g1912
sg18
S'0x12'
p1919
sg20
g21
ssS'352655364'
p1920
(dp1921
g3
g24
sg5
S'1314'
p1922
sS'FEC FED crate'
p1923
S'up center'
p1924
sg9
g56
sg11
S'10'
p1925
sg13
S'0x7d'
p1926
sg15
S'27/28'
p1927
sg17
g1920
sg18
S'0x10'
p1928
sg20
g21
ssS'352715780'
p1929
(dp1930
g3
g4
sg5
S'1308'
p1931
sS'FEC FED crate'
p1932
S'up center'
p1933
sg9
g84
sg11
g29
sg13
S'0x7b'
p1934
sg15
S'1/2'
p1935
sg17
g1929
sg18
S'0x10'
p1936
sg20
g21
ssS'344856580'
p1937
(dp1938
g3
g24
sg5
S'1332'
p1939
sS'FEC FED crate'
p1940
S'bottom'
p1941
sg9
g84
sg11
g29
sg13
S'0x7d'
p1942
sg15
S'47/48'
p1943
sg17
g1937
sg18
S'0x12'
p1944
sg20
g21
ssS'344511492'
p1945
(dp1946
g3
g24
sg5
S'1335'
p1947
sS'FEC FED crate'
p1948
S'bottom'
p1949
sg9
g38
sg11
S'10'
p1950
sg13
S'0x7c'
p1951
sg15
S'33/34'
p1952
sg17
g1945
sg18
S'0x11'
p1953
sg20
g21
ssS'352908292'
p1954
(dp1955
g3
g24
sg5
S'1313'
p1956
sS'FEC FED crate'
p1957
S'up center'
p1958
sg9
g10
sg11
S'10'
p1959
sg13
S'0x7d'
p1960
sg15
S'33/34'
p1961
sg17
g1954
sg18
S'0x11'
p1962
sg20
g21
ssS'344462340'
p1963
(dp1964
g3
g24
sg5
S'1323'
p1965
sS'FEC FED crate'
p1966
S'down center'
p1967
sg9
g38
sg11
S'10'
p1968
sg13
S'0x7e'
p1969
sg15
S'37/38'
p1970
sg17
g1963
sg18
S'0x11'
p1971
sg20
g21
ssS'344369156'
p1972
(dp1973
g3
g4
sg5
S'1336'
p1974
sS'FEC FED crate'
p1975
S'bottom'
p1976
sg9
g66
sg11
S'10'
p1977
sg13
S'0x7c'
p1978
sg15
S'3/4'
p1979
sg17
g1972
sg18
S'0x10'
p1980
sg20
g21
ssS'352859140'
p1981
(dp1982
g3
g4
sg5
S'1298'
p1983
sS'FEC FED crate'
p1984
S'top'
p1985
sg9
g28
sg11
g29
sg13
S'0x7e'
p1986
sg15
S'13/14'
p1987
sg17
g1981
sg18
S'0x11'
p1988
sg20
g21
ssS'353076228'
p1989
(dp1990
g3
g4
sg5
S'1300'
p1991
sS'FEC FED crate'
p1992
S'top'
p1993
sg9
g66
sg11
S'10'
p1994
sg13
S'0x7c'
p1995
sg15
S'13/14'
p1996
sg17
g1989
sg18
S'0x11'
p1997
sg20
g21
ssS'344572932'
p1998
(dp1999
g3
g24
sg5
S'1321'
p2000
sS'FEC FED crate'
p2001
S'down center'
p2002
sg9
g47
sg11
g29
sg13
S'0x7b'
p2003
sg15
S'33/34'
p2004
sg17
g1998
sg18
S'0x11'
p2005
sg20
g21
ssS'344216580'
p2006
(dp2007
g3
g24
sg5
S'1320'
p2008
sS'FEC FED crate'
p2009
S'down center'
p2010
sg9
g84
sg11
g29
sg13
S'0x7b'
p2011
sg15
S'29/30'
p2012
sg17
g2006
sg18
S'0x10'
p2013
sg20
g21
ssS'344770564'
p2014
(dp2015
g3
g4
sg5
S'1335'
p2016
sS'FEC FED crate'
p2017
S'bottom'
p2018
sg9
g38
sg11
g29
sg13
S'0x7e'
p2019
sg15
S'23/24'
p2020
sg17
g2014
sg18
S'0x12'
p2021
sg20
g21
ssS'344729604'
p2022
(dp2023
g3
g4
sg5
S'1323'
p2024
sS'FEC FED crate'
p2025
S'down center'
p2026
sg9
g38
sg11
g29
sg13
S'0x7c'
p2027
sg15
S'19/20'
p2028
sg17
g2022
sg18
S'0x12'
p2029
sg20
g21
ssS'344613892'
p2030
(dp2031
g3
g24
sg5
S'1334'
p2032
sS'FEC FED crate'
p2033
S'bottom'
p2034
sg9
g28
sg11
g29
sg13
S'0x7e'
p2035
sg15
S'33/34'
p2036
sg17
g2030
sg18
S'0x11'
p2037
sg20
g21
ssS'344425476'
p2038
(dp2039
g3
g24
sg5
S'1323'
p2040
sS'FEC FED crate'
p2041
S'down center'
p2042
sg9
g38
sg11
S'10'
p2043
sg13
S'0x7e'
p2044
sg15
S'25/26'
p2045
sg17
g2038
sg18
S'0x10'
p2046
sg20
g21
ssS'352990212'
p2047
(dp2048
g3
g24
sg5
S'1309'
p2049
sS'FEC FED crate'
p2050
S'up center'
p2051
sg9
g47
sg11
g29
sg13
S'0x7b'
p2052
sg15
S'33/34'
p2053
sg17
g2047
sg18
S'0x11'
p2054
sg20
g21
ssS'353207300'
p2055
(dp2056
g3
g4
sg5
S'1299'
p2057
sS'FEC FED crate'
p2058
S'top'
p2059
sg9
g38
sg11
g29
sg13
S'0x7e'
p2060
sg15
S'17/18'
p2061
sg17
g2055
sg18
S'0x12'
p2062
sg20
g21
ssS'352605188'
p2063
(dp2064
g3
g24
sg5
S'1296'
p2065
sS'FEC FED crate'
p2066
S'top'
p2067
sg9
g84
sg11
g29
sg13
S'0x7d'
p2068
sg15
S'25/26'
p2069
sg17
g2063
sg18
S'0x10'
p2070
sg20
g21
ssS'353011716'
p2071
(dp2072
g3
g4
sg5
S'1311'
p2073
sS'FEC FED crate'
p2074
S'up center'
p2075
sg9
g38
sg11
g29
sg13
S'0x7c'
p2076
sg15
S'15/16'
p2077
sg17
g2071
sg18
S'0x11'
p2078
sg20
g21
ssS'344406020'
p2079
(dp2080
g3
g24
sg5
S'1325'
p2081
sS'FEC FED crate'
p2082
S'down center'
p2083
sg9
g10
sg11
S'10'
p2084
sg13
S'0x7d'
p2085
sg15
S'31/32'
p2086
sg17
g2079
sg18
S'0x10'
p2087
sg20
g21
ssS'352815108'
p2088
(dp2089
g3
g4
sg5
S'1300'
p2090
sS'FEC FED crate'
p2091
S'top'
p2092
sg9
g66
sg11
S'10'
p2093
sg13
S'0x7c'
p2094
sg15
S'7/8'
p2095
sg17
g2088
sg18
S'0x10'
p2096
sg20
g21
ssS'344639492'
p2097
(dp2098
g3
g4
sg5
S'1337'
p2099
sS'FEC FED crate'
p2100
S'bottom'
p2101
sg9
g10
sg11
S'10'
p2102
sg13
S'0x7c'
p2103
sg15
S'15/16'
p2104
sg17
g2097
sg18
S'0x11'
p2105
sg20
g21
ssS'352647172'
p2106
(dp2107
g3
g24
sg5
S'1313'
p2108
sS'FEC FED crate'
p2109
S'up center'
p2110
sg9
g10
sg11
S'10'
p2111
sg13
S'0x7d'
p2112
sg15
S'27/28'
p2113
sg17
g2106
sg18
S'0x10'
p2114
sg20
g21
ssS'352643076'
p2115
(dp2116
g3
g24
sg5
S'1312'
p2117
sS'FEC FED crate'
p2118
S'up center'
p2119
sg9
g66
sg11
S'10'
p2120
sg13
S'0x7e'
p2121
sg15
S'31/32'
p2122
sg17
g2115
sg18
S'0x10'
p2123
sg20
g21
ssS'352675844'
p2124
(dp2125
g3
g24
sg5
S'1299'
p2126
sS'FEC FED crate'
p2127
S'top'
p2128
sg9
g38
sg11
S'10'
p2129
sg13
S'0x7c'
p2130
sg15
S'27/28'
p2131
sg17
g2124
sg18
S'0x10'
p2132
sg20
g21
ssS'344217604'
p2133
(dp2134
g3
g24
sg5
S'1320'
p2135
sS'FEC FED crate'
p2136
S'down center'
p2137
sg9
g84
sg11
g29
sg13
S'0x7b'
p2138
sg15
S'31/32'
p2139
sg17
g2133
sg18
S'0x10'
p2140
sg20
g21
ssS'353068036'
p2141
(dp2142
g3
g24
sg5
S'1300'
p2143
sS'FEC FED crate'
p2144
S'top'
p2145
sg9
g66
sg11
S'10'
p2146
sg13
S'0x7c'
p2147
sg15
S'37/38'
p2148
sg17
g2141
sg18
S'0x11'
p2149
sg20
g21
ssS'344549380'
p2150
(dp2151
g3
g4
sg5
S'1324'
p2152
sS'FEC FED crate'
p2153
S'down center'
p2154
sg9
g66
sg11
S'10'
p2155
sg13
S'0x7e'
p2156
sg15
S'15/16'
p2157
sg17
g2150
sg18
S'0x11'
p2158
sg20
g21
ssS'353183748'
p2159
(dp2160
g3
g24
sg5
S'1302'
p2161
sS'FEC FED crate'
p2162
S'top'
p2163
sg9
g56
sg11
g29
sg13
S'0x7b'
p2164
sg15
S'47/48'
p2165
sg17
g2159
sg18
S'0x12'
p2166
sg20
g21
ssS'344651780'
p2167
(dp2168
g3
g4
sg5
S'1338'
p2169
sS'FEC FED crate'
p2170
S'bottom'
p2171
sg9
g56
sg11
S'10'
p2172
sg13
S'0x7b'
p2173
sg15
S'11/12'
p2174
sg17
g2167
sg18
S'0x11'
p2175
sg20
g21
ssS'344553476'
p2176
(dp2177
g3
g4
sg5
S'1323'
p2178
sS'FEC FED crate'
p2179
S'down center'
p2180
sg9
g38
sg11
g29
sg13
S'0x7c'
p2181
sg15
S'15/16'
p2182
sg17
g2176
sg18
S'0x11'
p2183
sg20
g21
ssS'352982020'
p2184
(dp2185
g3
g24
sg5
S'1308'
p2186
sS'FEC FED crate'
p2187
S'up center'
p2188
sg9
g84
sg11
g29
sg13
S'0x7b'
p2189
sg15
S'33/34'
p2190
sg17
g2184
sg18
S'0x11'
p2191
sg20
g21
ssS'344626180'
p2192
(dp2193
g3
g4
sg5
S'1336'
p2194
sS'FEC FED crate'
p2195
S'bottom'
p2196
sg9
g66
sg11
S'10'
p2197
sg13
S'0x7c'
p2198
sg15
S'13/14'
p2199
sg17
g2192
sg18
S'0x11'
p2200
sg20
g21
ssS'353245188'
p2201
(dp2202
g3
g24
sg5
S'1308'
p2203
sS'FEC FED crate'
p2204
S'up center'
p2205
sg9
g84
sg11
g29
sg13
S'0x7b'
p2206
sg15
S'43/44'
p2207
sg17
g2201
sg18
S'0x12'
p2208
sg20
g21
ssS'353134596'
p2209
(dp2210
g3
g4
sg5
S'1296'
p2211
sS'FEC FED crate'
p2212
S'top'
p2213
sg9
g84
sg11
g29
sg13
S'0x7d'
p2214
sg15
S'19/20'
p2215
sg17
g2209
sg18
S'0x12'
p2216
sg20
g21
ssS'353060868'
p2217
(dp2218
g3
g4
sg5
S'1301'
p2219
sS'FEC FED crate'
p2220
S'top'
p2221
sg9
g10
sg11
S'10'
p2222
sg13
S'0x7b'
p2223
sg15
S'11/12'
p2224
sg17
g2217
sg18
S'0x11'
p2225
sg20
g21
ssS'344949764'
p2226
(dp2227
g3
g24
sg5
S'1323'
p2228
sS'FEC FED crate'
p2229
S'down center'
p2230
sg9
g38
sg11
g29
sg13
S'0x7e'
p2231
sg15
S'41/42'
p2232
sg17
g2226
sg18
S'0x12'
p2233
sg20
g21
ssS'352670724'
p2234
(dp2235
g3
g24
sg5
S'1300'
p2236
sS'FEC FED crate'
p2237
S'top'
p2238
sg9
g66
sg11
S'10'
p2239
sg13
S'0x7c'
p2240
sg15
S'25/26'
p2241
sg17
g2234
sg18
S'0x10'
p2242
sg20
g21
ssS'344352772'
p2243
(dp2244
g3
g24
sg5
S'1334'
p2245
sS'FEC FED crate'
p2246
S'bottom'
p2247
sg9
g28
sg11
g29
sg13
S'0x7e'
p2248
sg15
S'27/28'
p2249
sg17
g2243
sg18
S'0x10'
p2250
sg20
g21
ssS'344364036'
p2251
(dp2252
g3
g4
sg5
S'1336'
p2253
sS'FEC FED crate'
p2254
S'bottom'
p2255
sg9
g66
sg11
S'10'
p2256
sg13
S'0x7c'
p2257
sg15
S'5/6'
p2258
sg17
g2251
sg18
S'0x10'
p2259
sg20
g21
ssS'352892932'
p2260
(dp2261
g3
g4
sg5
S'1311'
p2262
sS'FEC FED crate'
p2263
S'up center'
p2264
sg9
g38
sg11
g29
sg13
S'0x7c'
p2265
sg15
S'11/12'
p2266
sg17
g2260
sg18
S'0x11'
p2267
sg20
g21
ssS'353138692'
p2268
(dp2269
g3
g4
sg5
S'1308'
p2270
sS'FEC FED crate'
p2271
S'up center'
p2272
sg9
g84
sg11
g29
sg13
S'0x7b'
p2273
sg15
S'23/24'
p2274
sg17
g2268
sg18
S'0x12'
p2275
sg20
g21
ssS'344593412'
p2276
(dp2277
g3
g24
sg5
S'1332'
p2278
sS'FEC FED crate'
p2279
S'bottom'
p2280
sg9
g84
sg11
g29
sg13
S'0x7d'
p2281
sg15
S'37/38'
p2282
sg17
g2276
sg18
S'0x11'
p2283
sg20
g21
ssS'353264644'
p2284
(dp2285
g3
g24
sg5
S'1310'
p2286
sS'FEC FED crate'
p2287
S'up center'
p2288
sg9
g28
sg11
g29
sg13
S'0x7c'
p2289
sg15
S'41/42'
p2290
sg17
g2284
sg18
S'0x12'
p2291
sg20
g21
ssS'353039364'
p2292
(dp2293
g3
g4
sg5
S'1314'
p2294
sS'FEC FED crate'
p2295
S'up center'
p2296
sg9
g56
sg11
S'10'
p2297
sg13
S'0x7d'
p2298
sg15
S'13/14'
p2299
sg17
g2292
sg18
S'0x11'
p2300
sg20
g21
ssS'344724484'
p2301
(dp2302
g3
g24
sg5
S'1323'
p2303
sS'FEC FED crate'
p2304
S'down center'
p2305
sg9
g38
sg11
g29
sg13
S'0x7e'
p2306
sg15
S'45/46'
p2307
sg17
g2301
sg18
S'0x12'
p2308
sg20
g21
ssS'344913924'
p2309
(dp2310
g3
g4
sg5
S'1338'
p2311
sS'FEC FED crate'
p2312
S'bottom'
p2313
sg9
g56
sg11
g29
sg13
S'0x7b'
p2314
sg15
S'19/20'
p2315
sg17
g2309
sg18
S'0x12'
p2316
sg20
g21
ssS'353290244'
p2317
(dp2318
g3
g4
sg5
S'1313'
p2319
sS'FEC FED crate'
p2320
S'up center'
p2321
sg9
g10
sg11
g29
sg13
S'0x7e'
p2322
sg15
S'19/20'
p2323
sg17
g2317
sg18
S'0x12'
p2324
sg20
g21
ssS'344279044'
p2325
(dp2326
g3
g24
sg5
S'1325'
p2327
sS'FEC FED crate'
p2328
S'down center'
p2329
sg9
g10
sg11
S'10'
p2330
sg13
S'0x7d'
p2331
sg15
S'27/28'
p2332
sg17
g2325
sg18
S'0x10'
p2333
sg20
g21
ssS'344921092'
p2334
(dp2335
g3
g24
sg5
S'1326'
p2336
sS'FEC FED crate'
p2337
S'down center'
p2338
sg9
g56
sg11
g29
sg13
S'0x7d'
p2339
sg15
S'45/46'
p2340
sg17
g2334
sg18
S'0x12'
p2341
sg20
g21
ssS'352936964'
p2342
(dp2343
g3
g24
sg5
S'1299'
p2344
sS'FEC FED crate'
p2345
S'top'
p2346
sg9
g38
sg11
S'10'
p2347
sg13
S'0x7c'
p2348
sg15
S'33/34'
p2349
sg17
g2342
sg18
S'0x11'
p2350
sg20
g21
ssS'352855044'
p2351
(dp2352
g3
g24
sg5
S'1298'
p2353
sS'FEC FED crate'
p2354
S'top'
p2355
sg9
g28
sg11
g29
sg13
S'0x7e'
p2356
sg15
S'37/38'
p2357
sg17
g2351
sg18
S'0x11'
p2358
sg20
g21
ssS'344491012'
p2359
(dp2360
g3
g24
sg5
S'1332'
p2361
sS'FEC FED crate'
p2362
S'bottom'
p2363
sg9
g84
sg11
g29
sg13
S'0x7d'
p2364
sg15
S'33/34'
p2365
sg17
g2359
sg18
S'0x11'
p2366
sg20
g21
ssS'353014788'
p2367
(dp2368
g3
g24
sg5
S'1311'
p2369
sS'FEC FED crate'
p2370
S'up center'
p2371
sg9
g38
sg11
S'10'
p2372
sg13
S'0x7e'
p2373
sg15
S'33/34'
p2374
sg17
g2367
sg18
S'0x11'
p2375
sg20
g21
ssS'344769540'
p2376
(dp2377
g3
g4
sg5
S'1335'
p2378
sS'FEC FED crate'
p2379
S'bottom'
p2380
sg9
g38
sg11
g29
sg13
S'0x7e'
p2381
sg15
S'21/22'
p2382
sg17
g2376
sg18
S'0x12'
p2383
sg20
g21
ssS'344365060'
p2384
(dp2385
g3
g4
sg5
S'1336'
p2386
sS'FEC FED crate'
p2387
S'bottom'
p2388
sg9
g66
sg11
S'10'
p2389
sg13
S'0x7c'
p2390
sg15
S'7/8'
p2391
sg17
g2384
sg18
S'0x10'
p2392
sg20
g21
ssS'344377348'
p2393
(dp2394
g3
g4
sg5
S'1337'
p2395
sS'FEC FED crate'
p2396
S'bottom'
p2397
sg9
g10
sg11
S'10'
p2398
sg13
S'0x7c'
p2399
sg15
S'7/8'
p2400
sg17
g2393
sg18
S'0x10'
p2401
sg20
g21
ssS'352924676'
p2402
(dp2403
g3
g4
sg5
S'1302'
p2404
sS'FEC FED crate'
p2405
S'top'
p2406
sg9
g56
sg11
S'10'
p2407
sg13
S'0x7b'
p2408
sg15
S'13/14'
p2409
sg17
g2402
sg18
S'0x11'
p2410
sg20
g21
ssS'352937988'
p2411
(dp2412
g3
g24
sg5
S'1299'
p2413
sS'FEC FED crate'
p2414
S'top'
p2415
sg9
g38
sg11
S'10'
p2416
sg13
S'0x7c'
p2417
sg15
S'35/36'
p2418
sg17
g2411
sg18
S'0x11'
p2419
sg20
g21
ssS'344671236'
p2420
(dp2421
g3
g4
sg5
S'1325'
p2422
sS'FEC FED crate'
p2423
S'down center'
p2424
sg9
g10
sg11
S'10'
p2425
sg13
S'0x7d'
p2426
sg15
S'13/14'
p2427
sg17
g2420
sg18
S'0x11'
p2428
sg20
g21
ssS'352692228'
p2429
(dp2430
g3
g4
sg5
S'1298'
p2431
sS'FEC FED crate'
p2432
S'top'
p2433
sg9
g28
sg11
g29
sg13
S'0x7e'
p2434
sg15
S'3/4'
p2435
sg17
g2429
sg18
S'0x10'
p2436
sg20
g21
ssS'352687108'
p2437
(dp2438
g3
g24
sg5
S'1298'
p2439
sS'FEC FED crate'
p2440
S'top'
p2441
sg9
g28
sg11
g29
sg13
S'0x7e'
p2442
sg15
S'25/26'
p2443
sg17
g2437
sg18
S'0x10'
p2444
sg20
g21
ssS'352986116'
p2445
(dp2446
g3
g4
sg5
S'1309'
p2447
sS'FEC FED crate'
p2448
S'up center'
p2449
sg9
g47
sg11
g29
sg13
S'0x7b'
p2450
sg15
S'9/10'
p2451
sg17
g2445
sg18
S'0x11'
p2452
sg20
g21
ssS'353006596'
p2453
(dp2454
g3
g24
sg5
S'1310'
p2455
sS'FEC FED crate'
p2456
S'up center'
p2457
sg9
g28
sg11
g29
sg13
S'0x7c'
p2458
sg15
S'37/38'
p2459
sg17
g2453
sg18
S'0x11'
p2460
sg20
g21
ssS'353018884'
p2461
(dp2462
g3
g4
sg5
S'1312'
p2463
sS'FEC FED crate'
p2464
S'up center'
p2465
sg9
g66
sg11
S'10'
p2466
sg13
S'0x7e'
p2467
sg15
S'9/10'
p2468
sg17
g2461
sg18
S'0x11'
p2469
sg20
g21
ssS'352716804'
p2470
(dp2471
g3
g4
sg5
S'1308'
p2472
sS'FEC FED crate'
p2473
S'up center'
p2474
sg9
g84
sg11
g29
sg13
S'0x7b'
p2475
sg15
S'3/4'
p2476
sg17
g2470
sg18
S'0x10'
p2477
sg20
g21
ssS'352806916'
p2478
(dp2479
g3
g24
sg5
S'1300'
p2480
sS'FEC FED crate'
p2481
S'top'
p2482
sg9
g66
sg11
S'10'
p2483
sg13
S'0x7c'
p2484
sg15
S'31/32'
p2485
sg17
g2478
sg18
S'0x10'
p2486
sg20
g21
ssS'352790532'
p2487
(dp2488
g3
g4
sg5
S'1302'
p2489
sS'FEC FED crate'
p2490
S'top'
p2491
sg9
g56
sg11
S'10'
p2492
sg13
S'0x7b'
p2493
sg15
S'3/4'
p2494
sg17
g2487
sg18
S'0x10'
p2495
sg20
g21
ssS'352973828'
p2496
(dp2497
g3
g4
sg5
S'1296'
p2498
sS'FEC FED crate'
p2499
S'top'
p2500
sg9
g84
sg11
g29
sg13
S'0x7d'
p2501
sg15
S'13/14'
p2502
sg17
g2496
sg18
S'0x11'
p2503
sg20
g21
ssS'344623108'
p2504
(dp2505
g3
g24
sg5
S'1335'
p2506
sS'FEC FED crate'
p2507
S'bottom'
p2508
sg9
g38
sg11
S'10'
p2509
sg13
S'0x7c'
p2510
sg15
S'39/40'
p2511
sg17
g2504
sg18
S'0x11'
p2512
sg20
g21
ssS'352598020'
p2513
(dp2514
g3
g4
sg5
S'1298'
p2515
sS'FEC FED crate'
p2516
S'top'
p2517
sg9
g28
sg11
g29
sg13
S'0x7e'
p2518
sg15
S'7/8'
p2519
sg17
g2513
sg18
S'0x10'
p2520
sg20
g21
ssS'353121284'
p2521
(dp2522
g3
g4
sg5
S'1298'
p2523
sS'FEC FED crate'
p2524
S'top'
p2525
sg9
g28
sg11
g29
sg13
S'0x7e'
p2526
sg15
S'21/22'
p2527
sg17
g2521
sg18
S'0x12'
p2528
sg20
g21
ssS'344343556'
p2529
(dp2530
g3
g24
sg5
S'1333'
p2531
sS'FEC FED crate'
p2532
S'bottom'
p2533
sg9
g47
sg11
g29
sg13
S'0x7e'
p2534
sg15
S'25/26'
p2535
sg17
g2529
sg18
S'0x10'
p2536
sg20
g21
ssS'352987140'
p2537
(dp2538
g3
g4
sg5
S'1309'
p2539
sS'FEC FED crate'
p2540
S'up center'
p2541
sg9
g47
sg11
g29
sg13
S'0x7b'
p2542
sg15
S'11/12'
p2543
sg17
g2537
sg18
S'0x11'
p2544
sg20
g21
ssS'352711684'
p2545
(dp2546
g3
g4
sg5
S'1296'
p2547
sS'FEC FED crate'
p2548
S'top'
p2549
sg9
g84
sg11
g29
sg13
S'0x7d'
p2550
sg15
S'5/6'
p2551
sg17
g2545
sg18
S'0x10'
p2552
sg20
g21
ssS'353063940'
p2553
(dp2554
g3
g4
sg5
S'1301'
p2555
sS'FEC FED crate'
p2556
S'top'
p2557
sg9
g10
sg11
S'10'
p2558
sg13
S'0x7c'
p2559
sg15
S'13/14'
p2560
sg17
g2553
sg18
S'0x11'
p2561
sg20
g21
ssS'344233988'
p2562
(dp2563
g3
g4
sg5
S'1333'
p2564
sS'FEC FED crate'
p2565
S'bottom'
p2566
sg9
g47
sg11
g29
sg13
S'0x7d'
p2567
sg15
S'3/4'
p2568
sg17
g2562
sg18
S'0x10'
p2569
sg20
g21
ssS'352699396'
p2570
(dp2571
g3
g24
sg5
S'1297'
p2572
sS'FEC FED crate'
p2573
S'top'
p2574
sg9
g47
sg11
g29
sg13
S'0x7d'
p2575
sg15
S'29/30'
p2576
sg17
g2570
sg18
S'0x10'
p2577
sg20
g21
ssS'344868868'
p2578
(dp2579
g3
g24
sg5
S'1333'
p2580
sS'FEC FED crate'
p2581
S'bottom'
p2582
sg9
g47
sg11
g29
sg13
S'0x7e'
p2583
sg15
S'43/44'
p2584
sg17
g2578
sg18
S'0x12'
p2585
sg20
g21
ssS'353282052'
p2586
(dp2587
g3
g4
sg5
S'1312'
p2588
sS'FEC FED crate'
p2589
S'up center'
p2590
sg9
g66
sg11
g29
sg13
S'0x7e'
p2591
sg15
S'19/20'
p2592
sg17
g2586
sg18
S'0x12'
p2593
sg20
g21
ssS'353269764'
p2594
(dp2595
g3
g24
sg5
S'1310'
p2596
sS'FEC FED crate'
p2597
S'up center'
p2598
sg9
g28
sg11
g29
sg13
S'0x7c'
p2599
sg15
S'47/48'
p2600
sg17
g2594
sg18
S'0x12'
p2601
sg20
g21
ssS'352871428'
p2602
(dp2603
g3
g4
sg5
S'1296'
p2604
sS'FEC FED crate'
p2605
S'top'
p2606
sg9
g84
sg11
g29
sg13
S'0x7d'
p2607
sg15
S'9/10'
p2608
sg17
g2602
sg18
S'0x11'
p2609
sg20
g21
ssS'352797700'
p2610
(dp2611
g3
g4
sg5
S'1301'
p2612
sS'FEC FED crate'
p2613
S'top'
p2614
sg9
g10
sg11
S'10'
p2615
sg13
S'0x7b'
p2616
sg15
S'1/2'
p2617
sg17
g2610
sg18
S'0x10'
p2618
sg20
g21
ssS'344520708'
p2619
(dp2620
g3
g24
sg5
S'1337'
p2621
sS'FEC FED crate'
p2622
S'bottom'
p2623
sg9
g10
sg11
S'10'
p2624
sg13
S'0x7b'
p2625
sg15
S'39/40'
p2626
sg17
g2619
sg18
S'0x11'
p2627
sg20
g21
ssS'352909316'
p2628
(dp2629
g3
g24
sg5
S'1313'
p2630
sS'FEC FED crate'
p2631
S'up center'
p2632
sg9
g10
sg11
S'10'
p2633
sg13
S'0x7d'
p2634
sg15
S'35/36'
p2635
sg17
g2628
sg18
S'0x11'
p2636
sg20
g21
ssS'344631300'
p2637
(dp2638
g3
g4
sg5
S'1336'
p2639
sS'FEC FED crate'
p2640
S'bottom'
p2641
sg9
g66
sg11
S'10'
p2642
sg13
S'0x7c'
p2643
sg15
S'11/12'
p2644
sg17
g2637
sg18
S'0x11'
p2645
sg20
g21
ssS'344200196'
p2646
(dp2647
g3
g24
sg5
S'1323'
p2648
sS'FEC FED crate'
p2649
S'down center'
p2650
sg9
g38
sg11
S'10'
p2651
sg13
S'0x7e'
p2652
sg15
S'29/30'
p2653
sg17
g2646
sg18
S'0x10'
p2654
sg20
g21
ssS'344881156'
p2655
(dp2656
g3
g4
sg5
S'1335'
p2657
sS'FEC FED crate'
p2658
S'bottom'
p2659
sg9
g38
sg11
g29
sg13
S'0x7e'
p2660
sg15
S'19/20'
p2661
sg17
g2655
sg18
S'0x12'
p2662
sg20
g21
ssS'344221700'
p2663
(dp2664
g3
g4
sg5
S'1320'
p2665
sS'FEC FED crate'
p2666
S'down center'
p2667
sg9
g84
sg11
g29
sg13
S'0x7b'
p2668
sg15
S'7/8'
p2669
sg17
g2663
sg18
S'0x10'
p2670
sg20
g21
ssS'352732164'
p2671
(dp2672
g3
g24
sg5
S'1309'
p2673
sS'FEC FED crate'
p2674
S'up center'
p2675
sg9
g47
sg11
g29
sg13
S'0x7c'
p2676
sg15
S'29/30'
p2677
sg17
g2671
sg18
S'0x10'
p2678
sg20
g21
ssS'353114116'
p2679
(dp2680
g3
g4
sg5
S'1299'
p2681
sS'FEC FED crate'
p2682
S'top'
p2683
sg9
g38
sg11
g29
sg13
S'0x7e'
p2684
sg15
S'23/24'
p2685
sg17
g2679
sg18
S'0x12'
p2686
sg20
g21
ssS'344871940'
p2687
(dp2688
g3
g4
sg5
S'1334'
p2689
sS'FEC FED crate'
p2690
S'bottom'
p2691
sg9
g28
sg11
g29
sg13
S'0x7e'
p2692
sg15
S'17/18'
p2693
sg17
g2687
sg18
S'0x12'
p2694
sg20
g21
ssS'344262660'
p2695
(dp2696
g3
g4
sg5
S'1338'
p2697
sS'FEC FED crate'
p2698
S'bottom'
p2699
sg9
g56
sg11
S'10'
p2700
sg13
S'0x7b'
p2701
sg15
S'7/8'
p2702
sg17
g2695
sg18
S'0x10'
p2703
sg20
g21
ssS'352659460'
p2704
(dp2705
g3
g24
sg5
S'1302'
p2706
sS'FEC FED crate'
p2707
S'top'
p2708
sg9
g56
sg11
S'10'
p2709
sg13
S'0x7b'
p2710
sg15
S'31/32'
p2711
sg17
g2704
sg18
S'0x10'
p2712
sg20
g21
ssS'344483844'
p2713
(dp2714
g3
g4
sg5
S'1320'
p2715
sS'FEC FED crate'
p2716
S'down center'
p2717
sg9
g84
sg11
g29
sg13
S'0x7b'
p2718
sg15
S'15/16'
p2719
sg17
g2713
sg18
S'0x11'
p2720
sg20
g21
ssS'344860676'
p2721
(dp2722
g3
g4
sg5
S'1333'
p2723
sS'FEC FED crate'
p2724
S'bottom'
p2725
sg9
g47
sg11
g29
sg13
S'0x7d'
p2726
sg15
S'23/24'
p2727
sg17
g2721
sg18
S'0x12'
p2728
sg20
g21
ssS'353133572'
p2729
(dp2730
g3
g4
sg5
S'1296'
p2731
sS'FEC FED crate'
p2732
S'top'
p2733
sg9
g84
sg11
g29
sg13
S'0x7d'
p2734
sg15
S'17/18'
p2735
sg17
g2729
sg18
S'0x12'
p2736
sg20
g21
ssS'344475652'
p2737
(dp2738
g3
g4
sg5
S'1321'
p2739
sS'FEC FED crate'
p2740
S'down center'
p2741
sg9
g47
sg11
g29
sg13
S'0x7b'
p2742
sg15
S'15/16'
p2743
sg17
g2737
sg18
S'0x11'
p2744
sg20
g21
ssS'344589316'
p2745
(dp2746
g3
g4
sg5
S'1332'
p2747
sS'FEC FED crate'
p2748
S'bottom'
p2749
sg9
g84
sg11
g29
sg13
S'0x7d'
p2750
sg15
S'13/14'
p2751
sg17
g2745
sg18
S'0x11'
p2752
sg20
g21
ssS'353064964'
p2753
(dp2754
g3
g4
sg5
S'1301'
p2755
sS'FEC FED crate'
p2756
S'top'
p2757
sg9
g10
sg11
S'10'
p2758
sg13
S'0x7c'
p2759
sg15
S'15/16'
p2760
sg17
g2753
sg18
S'0x11'
p2761
sg20
g21
ssS'353224708'
p2762
(dp2763
g3
g24
sg5
S'1297'
p2764
sS'FEC FED crate'
p2765
S'top'
p2766
sg9
g47
sg11
g29
sg13
S'0x7d'
p2767
sg15
S'47/48'
p2768
sg17
g2762
sg18
S'0x12'
p2769
sg20
g21
ssS'344794116'
p2770
(dp2771
g3
g24
sg5
S'1326'
p2772
sS'FEC FED crate'
p2773
S'down center'
p2774
sg9
g56
sg11
g29
sg13
S'0x7d'
p2775
sg15
S'41/42'
p2776
sg17
g2770
sg18
S'0x12'
p2777
sg20
g21
ssS'353022980'
p2778
(dp2779
g3
g24
sg5
S'1312'
p2780
sS'FEC FED crate'
p2781
S'up center'
p2782
sg9
g66
sg11
S'10'
p2783
sg13
S'0x7e'
p2784
sg15
S'33/34'
p2785
sg17
g2778
sg18
S'0x11'
p2786
sg20
g21
ssS'352901124'
p2787
(dp2788
g3
g4
sg5
S'1312'
p2789
sS'FEC FED crate'
p2790
S'up center'
p2791
sg9
g66
sg11
S'10'
p2792
sg13
S'0x7e'
p2793
sg15
S'15/16'
p2794
sg17
g2787
sg18
S'0x11'
p2795
sg20
g21
ssS'344397828'
p2796
(dp2797
g3
g24
sg5
S'1326'
p2798
sS'FEC FED crate'
p2799
S'down center'
p2800
sg9
g56
sg11
S'10'
p2801
sg13
S'0x7d'
p2802
sg15
S'31/32'
p2803
sg17
g2796
sg18
S'0x10'
p2804
sg20
g21
ssS'344404996'
p2805
(dp2806
g3
g24
sg5
S'1325'
p2807
sS'FEC FED crate'
p2808
S'down center'
p2809
sg9
g10
sg11
S'10'
p2810
sg13
S'0x7d'
p2811
sg15
S'29/30'
p2812
sg17
g2805
sg18
S'0x10'
p2813
sg20
g21
ssS'352887812'
p2814
(dp2815
g3
g4
sg5
S'1310'
p2816
sS'FEC FED crate'
p2817
S'up center'
p2818
sg9
g28
sg11
g29
sg13
S'0x7c'
p2819
sg15
S'9/10'
p2820
sg17
g2814
sg18
S'0x11'
p2821
sg20
g21
ssS'352695300'
p2822
(dp2823
g3
g24
sg5
S'1297'
p2824
sS'FEC FED crate'
p2825
S'top'
p2826
sg9
g47
sg11
g29
sg13
S'0x7e'
p2827
sg15
S'25/26'
p2828
sg17
g2822
sg18
S'0x10'
p2829
sg20
g21
ssS'353126404'
p2830
(dp2831
g3
g4
sg5
S'1297'
p2832
sS'FEC FED crate'
p2833
S'top'
p2834
sg9
g47
sg11
g29
sg13
S'0x7d'
p2835
sg15
S'19/20'
p2836
sg17
g2830
sg18
S'0x12'
p2837
sg20
g21
ssS'353276932'
p2838
(dp2839
g3
g24
sg5
S'1311'
p2840
sS'FEC FED crate'
p2841
S'up center'
p2842
sg9
g38
sg11
g29
sg13
S'0x7e'
p2843
sg15
S'41/42'
p2844
sg17
g2838
sg18
S'0x12'
p2845
sg20
g21
ssS'344463364'
p2846
(dp2847
g3
g24
sg5
S'1323'
p2848
sS'FEC FED crate'
p2849
S'down center'
p2850
sg9
g38
sg11
S'10'
p2851
sg13
S'0x7e'
p2852
sg15
S'39/40'
p2853
sg17
g2846
sg18
S'0x11'
p2854
sg20
g21
ssS'352998404'
p2855
(dp2856
g3
g4
sg5
S'1310'
p2857
sS'FEC FED crate'
p2858
S'up center'
p2859
sg9
g28
sg11
g29
sg13
S'0x7c'
p2860
sg15
S'13/14'
p2861
sg17
g2855
sg18
S'0x11'
p2862
sg20
g21
ssS'352949252'
p2863
(dp2864
g3
g24
sg5
S'1298'
p2865
sS'FEC FED crate'
p2866
S'top'
p2867
sg9
g28
sg11
g29
sg13
S'0x7e'
p2868
sg15
S'33/34'
p2869
sg17
g2863
sg18
S'0x11'
p2870
sg20
g21
ssS'344635396'
p2871
(dp2872
g3
g24
sg5
S'1336'
p2873
sS'FEC FED crate'
p2874
S'bottom'
p2875
sg9
g66
sg11
S'10'
p2876
sg13
S'0x7c'
p2877
sg15
S'39/40'
p2878
sg17
g2871
sg18
S'0x11'
p2879
sg20
g21
ssS'353313796'
p2880
(dp2881
g3
g4
sg5
S'1302'
p2882
sS'FEC FED crate'
p2883
S'top'
p2884
sg9
g56
sg11
g29
sg13
S'0x7b'
p2885
sg15
S'17/18'
p2886
sg17
g2880
sg18
S'0x12'
p2887
sg20
g21
ssS'344885252'
p2888
(dp2889
g3
g24
sg5
S'1335'
p2890
sS'FEC FED crate'
p2891
S'bottom'
p2892
sg9
g38
sg11
g29
sg13
S'0x7c'
p2893
sg15
S'47/48'
p2894
sg17
g2888
sg18
S'0x12'
p2895
sg20
g21
ssS'352932868'
p2896
(dp2897
g3
g24
sg5
S'1300'
p2898
sS'FEC FED crate'
p2899
S'top'
p2900
sg9
g66
sg11
S'10'
p2901
sg13
S'0x7c'
p2902
sg15
S'33/34'
p2903
sg17
g2896
sg18
S'0x11'
p2904
sg20
g21
ssS'344295428'
p2905
(dp2906
g3
g24
sg5
S'1322'
p2907
sS'FEC FED crate'
p2908
S'down center'
p2909
sg9
g28
sg11
g29
sg13
S'0x7c'
p2910
sg15
S'31/32'
p2911
sg17
g2905
sg18
S'0x10'
p2912
sg20
g21
ssS'344541188'
p2913
(dp2914
g3
g24
sg5
S'1325'
p2915
sS'FEC FED crate'
p2916
S'down center'
p2917
sg9
g10
sg11
S'10'
p2918
sg13
S'0x7d'
p2919
sg15
S'35/36'
p2920
sg17
g2913
sg18
S'0x11'
p2921
sg20
g21
ssS'353240068'
p2922
(dp2923
g3
g4
sg5
S'1308'
p2924
sS'FEC FED crate'
p2925
S'up center'
p2926
sg9
g84
sg11
g29
sg13
S'0x7b'
p2927
sg15
S'17/18'
p2928
sg17
g2922
sg18
S'0x12'
p2929
sg20
g21
ssS'344270852'
p2930
(dp2931
g3
g24
sg5
S'1326'
p2932
sS'FEC FED crate'
p2933
S'down center'
p2934
sg9
g56
sg11
S'10'
p2935
sg13
S'0x7d'
p2936
sg15
S'27/28'
p2937
sg17
g2930
sg18
S'0x10'
p2938
sg20
g21
ssS'352688132'
p2939
(dp2940
g3
g24
sg5
S'1298'
p2941
sS'FEC FED crate'
p2942
S'top'
p2943
sg9
g28
sg11
g29
sg13
S'0x7e'
p2944
sg15
S'27/28'
p2945
sg17
g2939
sg18
S'0x10'
p2946
sg20
g21
ssS'344654852'
p2947
(dp2948
g3
g24
sg5
S'1338'
p2949
sS'FEC FED crate'
p2950
S'bottom'
p2951
sg9
g56
sg11
S'10'
p2952
sg13
S'0x7b'
p2953
sg15
S'33/34'
p2954
sg17
g2947
sg18
S'0x11'
p2955
sg20
g21
ssS'352954372'
p2956
(dp2957
g3
g4
sg5
S'1298'
p2958
sS'FEC FED crate'
p2959
S'top'
p2960
sg9
g28
sg11
g29
sg13
S'0x7e'
p2961
sg15
S'11/12'
p2962
sg17
g2956
sg18
S'0x11'
p2963
sg20
g21
ssS'352610308'
p2964
(dp2965
g3
g4
sg5
S'1296'
p2966
sS'FEC FED crate'
p2967
S'top'
p2968
sg9
g84
sg11
g29
sg13
S'0x7d'
p2969
sg15
S'3/4'
p2970
sg17
g2964
sg18
S'0x10'
p2971
sg20
g21
ssS'353031172'
p2972
(dp2973
g3
g4
sg5
S'1313'
p2974
sS'FEC FED crate'
p2975
S'up center'
p2976
sg9
g10
sg11
S'10'
p2977
sg13
S'0x7d'
p2978
sg15
S'13/14'
p2979
sg17
g2972
sg18
S'0x11'
p2980
sg20
g21
ssS'353175556'
p2981
(dp2982
g3
g4
sg5
S'1314'
p2983
sS'FEC FED crate'
p2984
S'up center'
p2985
sg9
g56
sg11
g29
sg13
S'0x7d'
p2986
sg15
S'19/20'
p2987
sg17
g2981
sg18
S'0x12'
p2988
sg20
g21
ssS'344676356'
p2989
(dp2990
g3
g4
sg5
S'1325'
p2991
sS'FEC FED crate'
p2992
S'down center'
p2993
sg9
g10
sg11
S'10'
p2994
sg13
S'0x7e'
p2995
sg15
S'11/12'
p2996
sg17
g2989
sg18
S'0x11'
p2997
sg20
g21
ssS'344893444'
p2998
(dp2999
g3
g4
sg5
S'1336'
p3000
sS'FEC FED crate'
p3001
S'bottom'
p3002
sg9
g66
sg11
g29
sg13
S'0x7c'
p3003
sg15
S'19/20'
p3004
sg17
g2998
sg18
S'0x12'
p3005
sg20
g21
ssS'353007620'
p3006
(dp3007
g3
g24
sg5
S'1310'
p3008
sS'FEC FED crate'
p3009
S'up center'
p3010
sg9
g28
sg11
g29
sg13
S'0x7c'
p3011
sg15
S'39/40'
p3012
sg17
g3006
sg18
S'0x11'
p3013
sg20
g21
ssS'344565764'
p3014
(dp3015
g3
g4
sg5
S'1322'
p3016
sS'FEC FED crate'
p3017
S'down center'
p3018
sg9
g28
sg11
g29
sg13
S'0x7c'
p3019
sg15
S'15/16'
p3020
sg17
g3014
sg18
S'0x11'
p3021
sg20
g21
ssS'344515588'
p3022
(dp3023
g3
g24
sg5
S'1336'
p3024
sS'FEC FED crate'
p3025
S'bottom'
p3026
sg9
g66
sg11
S'10'
p3027
sg13
S'0x7c'
p3028
sg15
S'33/34'
p3029
sg17
g3022
sg18
S'0x11'
p3030
sg20
g21
ssS'344225796'
p3031
(dp3032
g3
g4
sg5
S'1332'
p3033
sS'FEC FED crate'
p3034
S'bottom'
p3035
sg9
g84
sg11
g29
sg13
S'0x7d'
p3036
sg15
S'3/4'
p3037
sg17
g3031
sg18
S'0x10'
p3038
sg20
g21
ssS'344597508'
p3039
(dp3040
g3
g4
sg5
S'1333'
p3041
sS'FEC FED crate'
p3042
S'bottom'
p3043
sg9
g47
sg11
g29
sg13
S'0x7d'
p3044
sg15
S'13/14'
p3045
sg17
g3039
sg18
S'0x11'
p3046
sg20
g21
ssS'344942596'
p3047
(dp3048
g3
g24
sg5
S'1324'
p3049
sS'FEC FED crate'
p3050
S'down center'
p3051
sg9
g66
sg11
g29
sg13
S'0x7e'
p3052
sg15
S'43/44'
p3053
sg17
g3047
sg18
S'0x12'
p3054
sg20
g21
ssS'344663044'
p3055
(dp3056
g3
g4
sg5
S'1326'
p3057
sS'FEC FED crate'
p3058
S'down center'
p3059
sg9
g56
sg11
S'10'
p3060
sg13
S'0x7d'
p3061
sg15
S'13/14'
p3062
sg17
g3055
sg18
S'0x11'
p3063
sg20
g21
ssS'353338372'
p3064
(dp3065
g3
g4
sg5
S'1300'
p3066
sS'FEC FED crate'
p3067
S'top'
p3068
sg9
g66
sg11
g29
sg13
S'0x7c'
p3069
sg15
S'21/22'
p3070
sg17
g3064
sg18
S'0x12'
p3071
sg20
g21
ssS'353335300'
p3072
(dp3073
g3
g4
sg5
S'1300'
p3074
sS'FEC FED crate'
p3075
S'top'
p3076
sg9
g66
sg11
g29
sg13
S'0x7c'
p3077
sg15
S'19/20'
p3078
sg17
g3072
sg18
S'0x12'
p3079
sg20
g21
ssS'344925188'
p3080
(dp3081
g3
g4
sg5
S'1326'
p3082
sS'FEC FED crate'
p3083
S'down center'
p3084
sg9
g56
sg11
g29
sg13
S'0x7d'
p3085
sg15
S'21/22'
p3086
sg17
g3080
sg18
S'0x12'
p3087
sg20
g21
ssS'344548356'
p3088
(dp3089
g3
g4
sg5
S'1324'
p3090
sS'FEC FED crate'
p3091
S'down center'
p3092
sg9
g66
sg11
S'10'
p3093
sg13
S'0x7e'
p3094
sg15
S'13/14'
p3095
sg17
g3088
sg18
S'0x11'
p3096
sg20
g21
ssS'344933380'
p3097
(dp3098
g3
g4
sg5
S'1325'
p3099
sS'FEC FED crate'
p3100
S'down center'
p3101
sg9
g10
sg11
g29
sg13
S'0x7d'
p3102
sg15
S'21/22'
p3103
sg17
g3097
sg18
S'0x12'
p3104
sg20
g21
ssS'353327108'
p3105
(dp3106
g3
g4
sg5
S'1301'
p3107
sS'FEC FED crate'
p3108
S'top'
p3109
sg9
g10
sg11
g29
sg13
S'0x7c'
p3110
sg15
S'23/24'
p3111
sg17
g3105
sg18
S'0x12'
p3112
sg20
g21
ssS'344762372'
p3113
(dp3114
g3
g4
sg5
S'1334'
p3115
sS'FEC FED crate'
p3116
S'bottom'
p3117
sg9
g28
sg11
g29
sg13
S'0x7e'
p3118
sg15
S'23/24'
p3119
sg17
g3113
sg18
S'0x12'
p3120
sg20
g21
ssS'353190916'
p3121
(dp3122
g3
g24
sg5
S'1301'
p3123
sS'FEC FED crate'
p3124
S'top'
p3125
sg9
g10
sg11
g29
sg13
S'0x7b'
p3126
sg15
S'45/46'
p3127
sg17
g3121
sg18
S'0x12'
p3128
sg20
g21
ssS'352606212'
p3129
(dp3130
g3
g24
sg5
S'1296'
p3131
sS'FEC FED crate'
p3132
S'top'
p3133
sg9
g84
sg11
g29
sg13
S'0x7d'
p3134
sg15
S'27/28'
p3135
sg17
g3129
sg18
S'0x10'
p3136
sg20
g21
ssS'352704516'
p3137
(dp3138
g3
g4
sg5
S'1297'
p3139
sS'FEC FED crate'
p3140
S'top'
p3141
sg9
g47
sg11
g29
sg13
S'0x7d'
p3142
sg15
S'7/8'
p3143
sg17
g3137
sg18
S'0x10'
p3144
sg20
g21
ssS'344778756'
p3145
(dp3146
g3
g24
sg5
S'1336'
p3147
sS'FEC FED crate'
p3148
S'bottom'
p3149
sg9
g66
sg11
g29
sg13
S'0x7c'
p3150
sg15
S'43/44'
p3151
sg17
g3145
sg18
S'0x12'
p3152
sg20
g21
ssS'353170436'
p3153
(dp3154
g3
g24
sg5
S'1313'
p3155
sS'FEC FED crate'
p3156
S'up center'
p3157
sg9
g10
sg11
g29
sg13
S'0x7d'
p3158
sg15
S'41/42'
p3159
sg17
g3153
sg18
S'0x12'
p3160
sg20
g21
ssS'352904196'
p3161
(dp3162
g3
g24
sg5
S'1312'
p3163
sS'FEC FED crate'
p3164
S'up center'
p3165
sg9
g66
sg11
S'10'
p3166
sg13
S'0x7e'
p3167
sg15
S'37/38'
p3168
sg17
g3161
sg18
S'0x11'
p3169
sg20
g21
ssS'344795140'
p3170
(dp3171
g3
g24
sg5
S'1326'
p3172
sS'FEC FED crate'
p3173
S'down center'
p3174
sg9
g56
sg11
g29
sg13
S'0x7d'
p3175
sg15
S'43/44'
p3176
sg17
g3170
sg18
S'0x12'
p3177
sg20
g21
ssS'344753156'
p3178
(dp3179
g3
g24
sg5
S'1332'
p3180
sS'FEC FED crate'
p3181
S'bottom'
p3182
sg9
g84
sg11
g29
sg13
S'0x7d'
p3183
sg15
S'41/42'
p3184
sg17
g3178
sg18
S'0x12'
p3185
sg20
g21
ssS'353314820'
p3186
(dp3187
g3
g4
sg5
S'1302'
p3188
sS'FEC FED crate'
p3189
S'top'
p3190
sg9
g56
sg11
g29
sg13
S'0x7b'
p3191
sg15
S'19/20'
p3192
sg17
g3186
sg18
S'0x12'
p3193
sg20
g21
ssS'352622596'
p3194
(dp3195
g3
g4
sg5
S'1309'
p3196
sS'FEC FED crate'
p3197
S'up center'
p3198
sg9
g47
sg11
g29
sg13
S'0x7b'
p3199
sg15
S'7/8'
p3200
sg17
g3194
sg18
S'0x10'
p3201
sg20
g21
ssS'352683012'
p3202
(dp3203
g3
g4
sg5
S'1299'
p3204
sS'FEC FED crate'
p3205
S'top'
p3206
sg9
g38
sg11
g29
sg13
S'0x7e'
p3207
sg15
S'1/2'
p3208
sg17
g3202
sg18
S'0x10'
p3209
sg20
g21
ssS'352814084'
p3210
(dp3211
g3
g4
sg5
S'1300'
p3212
sS'FEC FED crate'
p3213
S'top'
p3214
sg9
g66
sg11
S'10'
p3215
sg13
S'0x7c'
p3216
sg15
S'5/6'
p3217
sg17
g3210
sg18
S'0x10'
p3218
sg20
g21
ssS'344859652'
p3219
(dp3220
g3
g4
sg5
S'1333'
p3221
sS'FEC FED crate'
p3222
S'bottom'
p3223
sg9
g47
sg11
g29
sg13
S'0x7d'
p3224
sg15
S'21/22'
p3225
sg17
g3219
sg18
S'0x12'
p3226
sg20
g21
ssS'344495108'
p3227
(dp3228
g3
g4
sg5
S'1333'
p3229
sS'FEC FED crate'
p3230
S'bottom'
p3231
sg9
g47
sg11
g29
sg13
S'0x7d'
p3232
sg15
S'9/10'
p3233
sg17
g3227
sg18
S'0x11'
p3234
sg20
g21
ssS'344733700'
p3235
(dp3236
g3
g4
sg5
S'1322'
p3237
sS'FEC FED crate'
p3238
S'down center'
p3239
sg9
g28
sg11
g29
sg13
S'0x7c'
p3240
sg15
S'19/20'
p3241
sg17
g3235
sg18
S'0x12'
p3242
sg20
g21
ssS'344556548'
p3243
(dp3244
g3
g24
sg5
S'1322'
p3245
sS'FEC FED crate'
p3246
S'down center'
p3247
sg9
g28
sg11
g29
sg13
S'0x7c'
p3248
sg15
S'37/38'
p3249
sg17
g3243
sg18
S'0x11'
p3250
sg20
g21
ssS'344909828'
p3251
(dp3252
g3
g24
sg5
S'1337'
p3253
sS'FEC FED crate'
p3254
S'bottom'
p3255
sg9
g10
sg11
g29
sg13
S'0x7b'
p3256
sg15
S'43/44'
p3257
sg17
g3251
sg18
S'0x12'
p3258
sg20
g21
ssS'344208388'
p3259
(dp3260
g3
g4
sg5
S'1322'
p3261
sS'FEC FED crate'
p3262
S'down center'
p3263
sg9
g28
sg11
g29
sg13
S'0x7c'
p3264
sg15
S'1/2'
p3265
sg17
g3259
sg18
S'0x10'
p3266
sg20
g21
ssS'344668164'
p3267
(dp3268
g3
g24
sg5
S'1325'
p3269
sS'FEC FED crate'
p3270
S'down center'
p3271
sg9
g10
sg11
S'10'
p3272
sg13
S'0x7d'
p3273
sg15
S'39/40'
p3274
sg17
g3267
sg18
S'0x11'
p3275
sg20
g21
ssS'353032196'
p3276
(dp3277
g3
g4
sg5
S'1313'
p3278
sS'FEC FED crate'
p3279
S'up center'
p3280
sg9
g10
sg11
S'10'
p3281
sg13
S'0x7d'
p3282
sg15
S'15/16'
p3283
sg17
g3276
sg18
S'0x11'
p3284
sg20
g21
ssS'353056772'
p3285
(dp3286
g3
g24
sg5
S'1301'
p3287
sS'FEC FED crate'
p3288
S'top'
p3289
sg9
g10
sg11
S'10'
p3290
sg13
S'0x7b'
p3291
sg15
S'35/36'
p3292
sg17
g3285
sg18
S'0x11'
p3293
sg20
g21
ssS'344757252'
p3294
(dp3295
g3
g4
sg5
S'1333'
p3296
sS'FEC FED crate'
p3297
S'bottom'
p3298
sg9
g47
sg11
g29
sg13
S'0x7d'
p3299
sg15
S'17/18'
p3300
sg17
g3294
sg18
S'0x12'
p3301
sg20
g21
ssS'352654340'
p3302
(dp3303
g3
g24
sg5
S'1314'
p3304
sS'FEC FED crate'
p3305
S'up center'
p3306
sg9
g56
sg11
S'10'
p3307
sg13
S'0x7d'
p3308
sg15
S'25/26'
p3309
sg17
g3302
sg18
S'0x10'
p3310
sg20
g21
ssS'353241092'
p3311
(dp3312
g3
g4
sg5
S'1308'
p3313
sS'FEC FED crate'
p3314
S'up center'
p3315
sg9
g84
sg11
g29
sg13
S'0x7b'
p3316
sg15
S'19/20'
p3317
sg17
g3311
sg18
S'0x12'
p3318
sg20
g21
ssS'353129476'
p3319
(dp3320
g3
g24
sg5
S'1296'
p3321
sS'FEC FED crate'
p3322
S'top'
p3323
sg9
g84
sg11
g29
sg13
S'0x7d'
p3324
sg15
S'41/42'
p3325
sg17
g3319
sg18
S'0x12'
p3326
sg20
g21
ssS'344749060'
p3327
(dp3328
g3
g4
sg5
S'1332'
p3329
sS'FEC FED crate'
p3330
S'bottom'
p3331
sg9
g84
sg11
g29
sg13
S'0x7d'
p3332
sg15
S'17/18'
p3333
sg17
g3327
sg18
S'0x12'
p3334
sg20
g21
ssS'344745988'
p3335
(dp3336
g3
g4
sg5
S'1320'
p3337
sS'FEC FED crate'
p3338
S'down center'
p3339
sg9
g84
sg11
g29
sg13
S'0x7b'
p3340
sg15
S'23/24'
p3341
sg17
g3335
sg18
S'0x12'
p3342
sg20
g21
ssS'352950276'
p3343
(dp3344
g3
g24
sg5
S'1298'
p3345
sS'FEC FED crate'
p3346
S'top'
p3347
sg9
g28
sg11
g29
sg13
S'0x7e'
p3348
sg15
S'35/36'
p3349
sg17
g3343
sg18
S'0x11'
p3350
sg20
g21
ssS'344687620'
p3351
(dp3352
g3
g24
sg5
S'1323'
p3353
sS'FEC FED crate'
p3354
S'down center'
p3355
sg9
g38
sg11
S'10'
p3356
sg13
S'0x7e'
p3357
sg15
S'33/34'
p3358
sg17
g3351
sg18
S'0x11'
p3359
sg20
g21
ssS'344507396'
p3360
(dp3361
g3
g4
sg5
S'1335'
p3362
sS'FEC FED crate'
p3363
S'bottom'
p3364
sg9
g38
sg11
g29
sg13
S'0x7e'
p3365
sg15
S'13/14'
p3366
sg17
g3360
sg18
S'0x11'
p3367
sg20
g21
ssS'352696324'
p3368
(dp3369
g3
g24
sg5
S'1297'
p3370
sS'FEC FED crate'
p3371
S'top'
p3372
sg9
g47
sg11
g29
sg13
S'0x7e'
p3373
sg15
S'27/28'
p3374
sg17
g3368
sg18
S'0x10'
p3375
sg20
g21
ssS'344396804'
p3376
(dp3377
g3
g24
sg5
S'1326'
p3378
sS'FEC FED crate'
p3379
S'down center'
p3380
sg9
g56
sg11
S'10'
p3381
sg13
S'0x7d'
p3382
sg15
S'29/30'
p3383
sg17
g3376
sg18
S'0x10'
p3384
sg20
g21
ssS'344380420'
p3385
(dp3386
g3
g4
sg5
S'1337'
p3387
sS'FEC FED crate'
p3388
S'bottom'
p3389
sg9
g10
sg11
S'10'
p3390
sg13
S'0x7b'
p3391
sg15
S'1/2'
p3392
sg17
g3385
sg18
S'0x10'
p3393
sg20
g21
ssS'353155076'
p3394
(dp3395
g3
g4
sg5
S'1311'
p3396
sS'FEC FED crate'
p3397
S'up center'
p3398
sg9
g38
sg11
g29
sg13
S'0x7c'
p3399
sg15
S'19/20'
p3400
sg17
g3394
sg18
S'0x12'
p3401
sg20
g21
ssS'352756740'
p3402
(dp3403
g3
g4
sg5
S'1312'
p3404
sS'FEC FED crate'
p3405
S'up center'
p3406
sg9
g66
sg11
S'10'
p3407
sg13
S'0x7e'
p3408
sg15
S'1/2'
p3409
sg17
g3402
sg18
S'0x10'
p3410
sg20
g21
ssS'344815620'
p3411
(dp3412
g3
g4
sg5
S'1323'
p3413
sS'FEC FED crate'
p3414
S'down center'
p3415
sg9
g38
sg11
g29
sg13
S'0x7c'
p3416
sg15
S'23/24'
p3417
sg17
g3411
sg18
S'0x12'
p3418
sg20
g21
ssS'344537092'
p3419
(dp3420
g3
g4
sg5
S'1326'
p3421
sS'FEC FED crate'
p3422
S'down center'
p3423
sg9
g56
sg11
S'10'
p3424
sg13
S'0x7d'
p3425
sg15
S'11/12'
p3426
sg17
g3419
sg18
S'0x11'
p3427
sg20
g21
ssS'353130500'
p3428
(dp3429
g3
g24
sg5
S'1296'
p3430
sS'FEC FED crate'
p3431
S'top'
p3432
sg9
g84
sg11
g29
sg13
S'0x7d'
p3433
sg15
S'43/44'
p3434
sg17
g3428
sg18
S'0x12'
p3435
sg20
g21
ssS'352592900'
p3436
(dp3437
g3
g24
sg5
S'1298'
p3438
sS'FEC FED crate'
p3439
S'top'
p3440
sg9
g28
sg11
g29
sg13
S'0x7e'
p3441
sg15
S'29/30'
p3442
sg17
g3436
sg18
S'0x10'
p3443
sg20
g21
ssS'344499204'
p3444
(dp3445
g3
g4
sg5
S'1334'
p3446
sS'FEC FED crate'
p3447
S'bottom'
p3448
sg9
g28
sg11
g29
sg13
S'0x7e'
p3449
sg15
S'13/14'
p3450
sg17
g3444
sg18
S'0x11'
p3451
sg20
g21
ssS'352850948'
p3452
(dp3453
g3
g4
sg5
S'1299'
p3454
sS'FEC FED crate'
p3455
S'top'
p3456
sg9
g38
sg11
g29
sg13
S'0x7e'
p3457
sg15
S'13/14'
p3458
sg17
g3452
sg18
S'0x11'
p3459
sg20
g21
ssS'344479748'
p3460
(dp3461
g3
g24
sg5
S'1320'
p3462
sS'FEC FED crate'
p3463
S'down center'
p3464
sg9
g84
sg11
g29
sg13
S'0x7b'
p3465
sg15
S'39/40'
p3466
sg17
g3460
sg18
S'0x11'
p3467
sg20
g21
ssS'352970756'
p3468
(dp3469
g3
g24
sg5
S'1296'
p3470
sS'FEC FED crate'
p3471
S'top'
p3472
sg9
g84
sg11
g29
sg13
S'0x7d'
p3473
sg15
S'39/40'
p3474
sg17
g3468
sg18
S'0x11'
p3475
sg20
g21
ssS'344298500'
p3476
(dp3477
g3
g24
sg5
S'1322'
p3478
sS'FEC FED crate'
p3479
S'down center'
p3480
sg9
g28
sg11
g29
sg13
S'0x7c'
p3481
sg15
S'25/26'
p3482
sg17
g3476
sg18
S'0x10'
p3483
sg20
g21
ssS'352737284'
p3484
(dp3485
g3
g4
sg5
S'1310'
p3486
sS'FEC FED crate'
p3487
S'up center'
p3488
sg9
g28
sg11
g29
sg13
S'0x7c'
p3489
sg15
S'7/8'
p3490
sg17
g3484
sg18
S'0x10'
p3491
sg20
g21
ssS'344867844'
p3492
(dp3493
g3
g24
sg5
S'1333'
p3494
sS'FEC FED crate'
p3495
S'bottom'
p3496
sg9
g47
sg11
g29
sg13
S'0x7e'
p3497
sg15
S'41/42'
p3498
sg17
g3492
sg18
S'0x12'
p3499
sg20
g21
ssS'352678916'
p3500
(dp3501
g3
g24
sg5
S'1299'
p3502
sS'FEC FED crate'
p3503
S'top'
p3504
sg9
g38
sg11
S'10'
p3505
sg13
S'0x7c'
p3506
sg15
S'29/30'
p3507
sg17
g3500
sg18
S'0x10'
p3508
sg20
g21
ssS'352953348'
p3509
(dp3510
g3
g4
sg5
S'1298'
p3511
sS'FEC FED crate'
p3512
S'top'
p3513
sg9
g28
sg11
g29
sg13
S'0x7e'
p3514
sg15
S'9/10'
p3515
sg17
g3509
sg18
S'0x11'
p3516
sg20
g21
ssS'344926212'
p3517
(dp3518
g3
g4
sg5
S'1326'
p3519
sS'FEC FED crate'
p3520
S'down center'
p3521
sg9
g56
sg11
g29
sg13
S'0x7d'
p3522
sg15
S'23/24'
p3523
sg17
g3517
sg18
S'0x12'
p3524
sg20
g21
ssS'344664068'
p3525
(dp3526
g3
g4
sg5
S'1326'
p3527
sS'FEC FED crate'
p3528
S'down center'
p3529
sg9
g56
sg11
S'10'
p3530
sg13
S'0x7d'
p3531
sg15
S'15/16'
p3532
sg17
g3525
sg18
S'0x11'
p3533
sg20
g21
ssS'344351748'
p3534
(dp3535
g3
g24
sg5
S'1334'
p3536
sS'FEC FED crate'
p3537
S'bottom'
p3538
sg9
g28
sg11
g29
sg13
S'0x7e'
p3539
sg15
S'25/26'
p3540
sg17
g3534
sg18
S'0x10'
p3541
sg20
g21
ssS'344410116'
p3542
(dp3543
g3
g4
sg5
S'1325'
p3544
sS'FEC FED crate'
p3545
S'down center'
p3546
sg9
g10
sg11
S'10'
p3547
sg13
S'0x7d'
p3548
sg15
S'7/8'
p3549
sg17
g3542
sg18
S'0x10'
p3550
sg20
g21
ssS'344237060'
p3551
(dp3552
g3
g4
sg5
S'1334'
p3553
sS'FEC FED crate'
p3554
S'bottom'
p3555
sg9
g28
sg11
g29
sg13
S'0x7e'
p3556
sg15
S'5/6'
p3557
sg17
g3551
sg18
S'0x10'
p3558
sg20
g21
ssS'352994308'
p3559
(dp3560
g3
g24
sg5
S'1309'
p3561
sS'FEC FED crate'
p3562
S'up center'
p3563
sg9
g47
sg11
g29
sg13
S'0x7c'
p3564
sg15
S'37/38'
p3565
sg17
g3559
sg18
S'0x11'
p3566
sg20
g21
ssS'344336388'
p3567
(dp3568
g3
g4
sg5
S'1333'
p3569
sS'FEC FED crate'
p3570
S'bottom'
p3571
sg9
g47
sg11
g29
sg13
S'0x7d'
p3572
sg15
S'7/8'
p3573
sg17
g3567
sg18
S'0x10'
p3574
sg20
g21
ssS'353059844'
p3575
(dp3576
g3
g4
sg5
S'1301'
p3577
sS'FEC FED crate'
p3578
S'top'
p3579
sg9
g10
sg11
S'10'
p3580
sg13
S'0x7b'
p3581
sg15
S'9/10'
p3582
sg17
g3575
sg18
S'0x11'
p3583
sg20
g21
ssS'352896004'
p3584
(dp3585
g3
g24
sg5
S'1311'
p3586
sS'FEC FED crate'
p3587
S'up center'
p3588
sg9
g38
sg11
S'10'
p3589
sg13
S'0x7e'
p3590
sg15
S'37/38'
p3591
sg17
g3584
sg18
S'0x11'
p3592
sg20
g21
ssS'352879620'
p3593
(dp3594
g3
g24
sg5
S'1308'
p3595
sS'FEC FED crate'
p3596
S'up center'
p3597
sg9
g84
sg11
g29
sg13
S'0x7b'
p3598
sg15
S'37/38'
p3599
sg17
g3593
sg18
S'0x11'
p3600
sg20
g21
ssS'353228804'
p3601
(dp3602
g3
g4
sg5
S'1297'
p3603
sS'FEC FED crate'
p3604
S'top'
p3605
sg9
g47
sg11
g29
sg13
S'0x7d'
p3606
sg15
S'23/24'
p3607
sg17
g3601
sg18
S'0x12'
p3608
sg20
g21
ssS'344213508'
p3609
(dp3610
g3
g4
sg5
S'1321'
p3611
sS'FEC FED crate'
p3612
S'down center'
p3613
sg9
g47
sg11
g29
sg13
S'0x7b'
p3614
sg15
S'7/8'
p3615
sg17
g3609
sg18
S'0x10'
p3616
sg20
g21
ssS'352593924'
p3617
(dp3618
g3
g24
sg5
S'1298'
p3619
sS'FEC FED crate'
p3620
S'top'
p3621
sg9
g28
sg11
g29
sg13
S'0x7e'
p3622
sg15
S'31/32'
p3623
sg17
g3617
sg18
S'0x10'
p3624
sg20
g21
ssS'353015812'
p3625
(dp3626
g3
g24
sg5
S'1311'
p3627
sS'FEC FED crate'
p3628
S'up center'
p3629
sg9
g38
sg11
S'10'
p3630
sg13
S'0x7e'
p3631
sg15
S'35/36'
p3632
sg17
g3625
sg18
S'0x11'
p3633
sg20
g21
ssS'352921604'
p3634
(dp3635
g3
g24
sg5
S'1302'
p3636
sS'FEC FED crate'
p3637
S'top'
p3638
sg9
g56
sg11
S'10'
p3639
sg13
S'0x7b'
p3640
sg15
S'39/40'
p3641
sg17
g3634
sg18
S'0x11'
p3642
sg20
g21
ssS'344385540'
p3643
(dp3644
g3
g24
sg5
S'1337'
p3645
sS'FEC FED crate'
p3646
S'bottom'
p3647
sg9
g10
sg11
S'10'
p3648
sg13
S'0x7b'
p3649
sg15
S'27/28'
p3650
sg17
g3643
sg18
S'0x10'
p3651
sg20
g21
ssS'344229892'
p3652
(dp3653
g3
g24
sg5
S'1332'
p3654
sS'FEC FED crate'
p3655
S'bottom'
p3656
sg9
g84
sg11
g29
sg13
S'0x7d'
p3657
sg15
S'27/28'
p3658
sg17
g3652
sg18
S'0x10'
p3659
sg20
g21
ssS'353043460'
p3660
(dp3661
g3
g24
sg5
S'1314'
p3662
sS'FEC FED crate'
p3663
S'up center'
p3664
sg9
g56
sg11
S'10'
p3665
sg13
S'0x7d'
p3666
sg15
S'37/38'
p3667
sg17
g3660
sg18
S'0x11'
p3668
sg20
g21
ssS'344754180'
p3669
(dp3670
g3
g24
sg5
S'1332'
p3671
sS'FEC FED crate'
p3672
S'bottom'
p3673
sg9
g84
sg11
g29
sg13
S'0x7d'
p3674
sg15
S'43/44'
p3675
sg17
g3669
sg18
S'0x12'
p3676
sg20
g21
ssS'353122308'
p3677
(dp3678
g3
g4
sg5
S'1298'
p3679
sS'FEC FED crate'
p3680
S'top'
p3681
sg9
g28
sg11
g29
sg13
S'0x7e'
p3682
sg15
S'23/24'
p3683
sg17
g3677
sg18
S'0x12'
p3684
sg20
g21
ssS'352925700'
p3685
(dp3686
g3
g4
sg5
S'1302'
p3687
sS'FEC FED crate'
p3688
S'top'
p3689
sg9
g56
sg11
S'10'
p3690
sg13
S'0x7b'
p3691
sg15
S'15/16'
p3692
sg17
g3685
sg18
S'0x11'
p3693
sg20
g21
ssS'353055748'
p3694
(dp3695
g3
g24
sg5
S'1301'
p3696
sS'FEC FED crate'
p3697
S'top'
p3698
sg9
g10
sg11
S'10'
p3699
sg13
S'0x7b'
p3700
sg15
S'33/34'
p3701
sg17
g3694
sg18
S'0x11'
p3702
sg20
g21
ssS'344880132'
p3703
(dp3704
g3
g4
sg5
S'1335'
p3705
sS'FEC FED crate'
p3706
S'bottom'
p3707
sg9
g38
sg11
g29
sg13
S'0x7e'
p3708
sg15
S'17/18'
p3709
sg17
g3703
sg18
S'0x12'
p3710
sg20
g21
ssS'352946180'
p3711
(dp3712
g3
g4
sg5
S'1299'
p3713
sS'FEC FED crate'
p3714
S'top'
p3715
sg9
g38
sg11
g29
sg13
S'0x7e'
p3716
sg15
S'11/12'
p3717
sg17
g3711
sg18
S'0x11'
p3718
sg20
g21
ssS'344327172'
p3719
(dp3720
g3
g4
sg5
S'1332'
p3721
sS'FEC FED crate'
p3722
S'bottom'
p3723
sg9
g84
sg11
g29
sg13
S'0x7d'
p3724
sg15
S'5/6'
p3725
sg17
g3719
sg18
S'0x10'
p3726
sg20
g21
ssS'344426500'
p3727
(dp3728
g3
g24
sg5
S'1323'
p3729
sS'FEC FED crate'
p3730
S'down center'
p3731
sg9
g38
sg11
S'10'
p3732
sg13
S'0x7e'
p3733
sg15
S'27/28'
p3734
sg17
g3727
sg18
S'0x10'
p3735
sg20
g21
ssS'352630788'
p3736
(dp3737
g3
g4
sg5
S'1311'
p3738
sS'FEC FED crate'
p3739
S'up center'
p3740
sg9
g38
sg11
g29
sg13
S'0x7c'
p3741
sg15
S'3/4'
p3742
sg17
g3736
sg18
S'0x10'
p3743
sg20
g21
ssS'344918020'
p3744
(dp3745
g3
g24
sg5
S'1338'
p3746
sS'FEC FED crate'
p3747
S'bottom'
p3748
sg9
g56
sg11
g29
sg13
S'0x7b'
p3749
sg15
S'43/44'
p3750
sg17
g3744
sg18
S'0x12'
p3751
sg20
g21
ssS'352929796'
p3752
(dp3753
g3
g24
sg5
S'1301'
p3754
sS'FEC FED crate'
p3755
S'top'
p3756
sg9
g10
sg11
S'10'
p3757
sg13
S'0x7b'
p3758
sg15
S'39/40'
p3759
sg17
g3752
sg18
S'0x11'
p3760
sg20
g21
ssS'344658948'
p3761
(dp3762
g3
g24
sg5
S'1326'
p3763
sS'FEC FED crate'
p3764
S'down center'
p3765
sg9
g56
sg11
S'10'
p3766
sg13
S'0x7d'
p3767
sg15
S'37/38'
p3768
sg17
g3761
sg18
S'0x11'
p3769
sg20
g21
ssS'344740868'
p3770
(dp3771
g3
g24
sg5
S'1320'
p3772
sS'FEC FED crate'
p3773
S'down center'
p3774
sg9
g84
sg11
g29
sg13
S'0x7b'
p3775
sg15
S'45/46'
p3776
sg17
g3770
sg18
S'0x12'
p3777
sg20
g21
ssS'353294340'
p3778
(dp3779
g3
g4
sg5
S'1313'
p3780
sS'FEC FED crate'
p3781
S'up center'
p3782
sg9
g10
sg11
g29
sg13
S'0x7d'
p3783
sg15
S'23/24'
p3784
sg17
g3778
sg18
S'0x12'
p3785
sg20
g21
ssS'352720900'
p3786
(dp3787
g3
g24
sg5
S'1308'
p3788
sS'FEC FED crate'
p3789
S'up center'
p3790
sg9
g84
sg11
g29
sg13
S'0x7b'
p3791
sg15
S'27/28'
p3792
sg17
g3786
sg18
S'0x10'
p3793
sg20
g21
ssS'344900612'
p3794
(dp3795
g3
g4
sg5
S'1337'
p3796
sS'FEC FED crate'
p3797
S'bottom'
p3798
sg9
g10
sg11
g29
sg13
S'0x7c'
p3799
sg15
S'21/22'
p3800
sg17
g3794
sg18
S'0x12'
p3801
sg20
g21
ssS'353203204'
p3802
(dp3803
g3
g24
sg5
S'1299'
p3804
sS'FEC FED crate'
p3805
S'top'
p3806
sg9
g38
sg11
g29
sg13
S'0x7c'
p3807
sg15
S'45/46'
p3808
sg17
g3802
sg18
S'0x12'
p3809
sg20
g21
ssS'352691204'
p3810
(dp3811
g3
g4
sg5
S'1298'
p3812
sS'FEC FED crate'
p3813
S'top'
p3814
sg9
g28
sg11
g29
sg13
S'0x7e'
p3815
sg15
S'1/2'
p3816
sg17
g3810
sg18
S'0x10'
p3817
sg20
g21
ssS'344422404'
p3818
(dp3819
g3
g4
sg5
S'1324'
p3820
sS'FEC FED crate'
p3821
S'down center'
p3822
sg9
g66
sg11
S'10'
p3823
sg13
S'0x7e'
p3824
sg15
S'3/4'
p3825
sg17
g3818
sg18
S'0x10'
p3826
sg20
g21
ssS'344286212'
p3827
(dp3828
g3
g4
sg5
S'1324'
p3829
sS'FEC FED crate'
p3830
S'down center'
p3831
sg9
g66
sg11
S'10'
p3832
sg13
S'0x7e'
p3833
sg15
S'5/6'
p3834
sg17
g3827
sg18
S'0x10'
p3835
sg20
g21
ssS'344265732'
p3836
(dp3837
g3
g24
sg5
S'1338'
p3838
sS'FEC FED crate'
p3839
S'bottom'
p3840
sg9
g56
sg11
S'10'
p3841
sg13
S'0x7b'
p3842
sg15
S'29/30'
p3843
sg17
g3836
sg18
S'0x10'
p3844
sg20
g21
ssS'344401924'
p3845
(dp3846
g3
g4
sg5
S'1326'
p3847
sS'FEC FED crate'
p3848
S'down center'
p3849
sg9
g56
sg11
S'10'
p3850
sg13
S'0x7d'
p3851
sg15
S'7/8'
p3852
sg17
g3845
sg18
S'0x10'
p3853
sg20
g21
ssS'344561668'
p3854
(dp3855
g3
g24
sg5
S'1322'
p3856
sS'FEC FED crate'
p3857
S'down center'
p3858
sg9
g28
sg11
g29
sg13
S'0x7c'
p3859
sg15
S'35/36'
p3860
sg17
g3854
sg18
S'0x11'
p3861
sg20
g21
ssS'353323012'
p3862
(dp3863
g3
g4
sg5
S'1301'
p3864
sS'FEC FED crate'
p3865
S'top'
p3866
sg9
g10
sg11
g29
sg13
S'0x7b'
p3867
sg15
S'19/20'
p3868
sg17
g3862
sg18
S'0x12'
p3869
sg20
g21
ssS'344393732'
p3870
(dp3871
g3
g24
sg5
S'1338'
p3872
sS'FEC FED crate'
p3873
S'bottom'
p3874
sg9
g56
sg11
S'10'
p3875
sg13
S'0x7b'
p3876
sg15
S'27/28'
p3877
sg17
g3870
sg18
S'0x10'
p3878
sg20
g21
ssS'344568836'
p3879
(dp3880
g3
g24
sg5
S'1321'
p3881
sS'FEC FED crate'
p3882
S'down center'
p3883
sg9
g47
sg11
g29
sg13
S'0x7c'
p3884
sg15
S'37/38'
p3885
sg17
g3879
sg18
S'0x11'
p3886
sg20
g21
ssS'344655876'
p3887
(dp3888
g3
g24
sg5
S'1338'
p3889
sS'FEC FED crate'
p3890
S'bottom'
p3891
sg9
g56
sg11
S'10'
p3892
sg13
S'0x7b'
p3893
sg15
S'35/36'
p3894
sg17
g3887
sg18
S'0x11'
p3895
sg20
g21
ssS'353219588'
p3896
(dp3897
g3
g24
sg5
S'1297'
p3898
sS'FEC FED crate'
p3899
S'top'
p3900
sg9
g47
sg11
g29
sg13
S'0x7e'
p3901
sg15
S'41/42'
p3902
sg17
g3896
sg18
S'0x12'
p3903
sg20
g21
ssS'353277956'
p3904
(dp3905
g3
g24
sg5
S'1311'
p3906
sS'FEC FED crate'
p3907
S'up center'
p3908
sg9
g38
sg11
g29
sg13
S'0x7e'
p3909
sg15
S'43/44'
p3910
sg17
g3904
sg18
S'0x12'
p3911
sg20
g21
ssS'352801796'
p3912
(dp3913
g3
g4
sg5
S'1301'
p3914
sS'FEC FED crate'
p3915
S'top'
p3916
sg9
g10
sg11
S'10'
p3917
sg13
S'0x7c'
p3918
sg15
S'5/6'
p3919
sg17
g3912
sg18
S'0x10'
p3920
sg20
g21
ssS'344273924'
p3921
(dp3922
g3
g4
sg5
S'1326'
p3923
sS'FEC FED crate'
p3924
S'down center'
p3925
sg9
g56
sg11
S'10'
p3926
sg13
S'0x7d'
p3927
sg15
S'1/2'
p3928
sg17
g3921
sg18
S'0x10'
p3929
sg20
g21
ssS'353145860'
p3930
(dp3931
g3
g4
sg5
S'1309'
p3932
sS'FEC FED crate'
p3933
S'up center'
p3934
sg9
g47
sg11
g29
sg13
S'0x7b'
p3935
sg15
S'21/22'
p3936
sg17
g3930
sg18
S'0x12'
p3937
sg20
g21
ssS'353040388'
p3938
(dp3939
g3
g4
sg5
S'1314'
p3940
sS'FEC FED crate'
p3941
S'up center'
p3942
sg9
g56
sg11
S'10'
p3943
sg13
S'0x7d'
p3944
sg15
S'15/16'
p3945
sg17
g3938
sg18
S'0x11'
p3946
sg20
g21
ssS'344585220'
p3947
(dp3948
g3
g4
sg5
S'1320'
p3949
sS'FEC FED crate'
p3950
S'down center'
p3951
sg9
g84
sg11
g29
sg13
S'0x7b'
p3952
sg15
S'9/10'
p3953
sg17
g3947
sg18
S'0x11'
p3954
sg20
g21
ssS'352802820'
p3955
(dp3956
g3
g4
sg5
S'1301'
p3957
sS'FEC FED crate'
p3958
S'top'
p3959
sg9
g10
sg11
S'10'
p3960
sg13
S'0x7c'
p3961
sg15
S'7/8'
p3962
sg17
g3955
sg18
S'0x10'
p3963
sg20
g21
ssS'352650244'
p3964
(dp3965
g3
g4
sg5
S'1314'
p3966
sS'FEC FED crate'
p3967
S'up center'
p3968
sg9
g56
sg11
S'10'
p3969
sg13
S'0x7d'
p3970
sg15
S'1/2'
p3971
sg17
g3964
sg18
S'0x10'
p3972
sg20
g21
ssS'344884228'
p3973
(dp3974
g3
g24
sg5
S'1335'
p3975
sS'FEC FED crate'
p3976
S'bottom'
p3977
sg9
g38
sg11
g29
sg13
S'0x7c'
p3978
sg15
S'45/46'
p3979
sg17
g3973
sg18
S'0x12'
p3980
sg20
g21
ssS'344578052'
p3981
(dp3982
g3
g4
sg5
S'1321'
p3983
sS'FEC FED crate'
p3984
S'down center'
p3985
sg9
g47
sg11
g29
sg13
S'0x7b'
p3986
sg15
S'11/12'
p3987
sg17
g3981
sg18
S'0x11'
p3988
sg20
g21
ssS'344519684'
p3989
(dp3990
g3
g24
sg5
S'1337'
p3991
sS'FEC FED crate'
p3992
S'bottom'
p3993
sg9
g10
sg11
S'10'
p3994
sg13
S'0x7b'
p3995
sg15
S'37/38'
p3996
sg17
g3989
sg18
S'0x11'
p3997
sg20
g21
ssS'344282116'
p3998
(dp3999
g3
g24
sg5
S'1324'
p4000
sS'FEC FED crate'
p4001
S'down center'
p4002
sg9
g66
sg11
S'10'
p4003
sg13
S'0x7e'
p4004
sg15
S'29/30'
p4005
sg17
g3998
sg18
S'0x10'
p4006
sg20
g21
ssS'353077252'
p4007
(dp4008
g3
g4
sg5
S'1300'
p4009
sS'FEC FED crate'
p4010
S'top'
p4011
sg9
g66
sg11
S'10'
p4012
sg13
S'0x7c'
p4013
sg15
S'15/16'
p4014
sg17
g4007
sg18
S'0x11'
p4015
sg20
g21
ssS'352626692'
p4016
(dp4017
g3
g4
sg5
S'1310'
p4018
sS'FEC FED crate'
p4019
S'up center'
p4020
sg9
g28
sg11
g29
sg13
S'0x7c'
p4021
sg15
S'3/4'
p4022
sg17
g4016
sg18
S'0x10'
p4023
sg20
g21
ssS'352945156'
p4024
(dp4025
g3
g4
sg5
S'1299'
p4026
sS'FEC FED crate'
p4027
S'top'
p4028
sg9
g38
sg11
g29
sg13
S'0x7e'
p4029
sg15
S'9/10'
p4030
sg17
g4024
sg18
S'0x11'
p4031
sg20
g21
ssS'353330180'
p4032
(dp4033
g3
g24
sg5
S'1300'
p4034
sS'FEC FED crate'
p4035
S'top'
p4036
sg9
g66
sg11
g29
sg13
S'0x7c'
p4037
sg15
S'45/46'
p4038
sg17
g4032
sg18
S'0x12'
p4039
sg20
g21
ssS'353113092'
p4040
(dp4041
g3
g4
sg5
S'1299'
p4042
sS'FEC FED crate'
p4043
S'top'
p4044
sg9
g38
sg11
g29
sg13
S'0x7e'
p4045
sg15
S'21/22'
p4046
sg17
g4040
sg18
S'0x12'
p4047
sg20
g21
ssS'353154052'
p4048
(dp4049
g3
g4
sg5
S'1311'
p4050
sS'FEC FED crate'
p4051
S'up center'
p4052
sg9
g38
sg11
g29
sg13
S'0x7c'
p4053
sg15
S'17/18'
p4054
sg17
g4048
sg18
S'0x12'
p4055
sg20
g21
ssS'353187844'
p4056
(dp4057
g3
g4
sg5
S'1302'
p4058
sS'FEC FED crate'
p4059
S'top'
p4060
sg9
g56
sg11
g29
sg13
S'0x7b'
p4061
sg15
S'23/24'
p4062
sg17
g4056
sg18
S'0x12'
p4063
sg20
g21
ssS'352978948'
p4064
(dp4065
g3
g4
sg5
S'1308'
p4066
sS'FEC FED crate'
p4067
S'up center'
p4068
sg9
g84
sg11
g29
sg13
S'0x7b'
p4069
sg15
S'11/12'
p4070
sg17
g4064
sg18
S'0x11'
p4071
sg20
g21
ssS'344725508'
p4072
(dp4073
g3
g24
sg5
S'1323'
p4074
sS'FEC FED crate'
p4075
S'down center'
p4076
sg9
g38
sg11
g29
sg13
S'0x7e'
p4077
sg15
S'47/48'
p4078
sg17
g4072
sg18
S'0x12'
p4079
sg20
g21
ssS'352764932'
p4080
(dp4081
g3
g4
sg5
S'1313'
p4082
sS'FEC FED crate'
p4083
S'up center'
p4084
sg9
g10
sg11
S'10'
p4085
sg13
S'0x7e'
p4086
sg15
S'1/2'
p4087
sg17
g4080
sg18
S'0x10'
p4088
sg20
g21
ssS'352884740'
p4089
(dp4090
g3
g4
sg5
S'1309'
p4091
sS'FEC FED crate'
p4092
S'up center'
p4093
sg9
g47
sg11
g29
sg13
S'0x7b'
p4094
sg15
S'15/16'
p4095
sg17
g4089
sg18
S'0x11'
p4096
sg20
g21
ssS'353273860'
p4097
(dp4098
g3
g4
sg5
S'1311'
p4099
sS'FEC FED crate'
p4100
S'up center'
p4101
sg9
g38
sg11
g29
sg13
S'0x7c'
p4102
sg15
S'23/24'
p4103
sg17
g4097
sg18
S'0x12'
p4104
sg20
g21
ssS'352749572'
p4105
(dp4106
g3
g4
sg5
S'1311'
p4107
sS'FEC FED crate'
p4108
S'up center'
p4109
sg9
g38
sg11
g29
sg13
S'0x7c'
p4110
sg15
S'7/8'
p4111
sg17
g4105
sg18
S'0x10'
p4112
sg20
g21
ssS'344389636'
p4113
(dp4114
g3
g4
sg5
S'1338'
p4115
sS'FEC FED crate'
p4116
S'bottom'
p4117
sg9
g56
sg11
S'10'
p4118
sg13
S'0x7b'
p4119
sg15
S'3/4'
p4120
sg17
g4113
sg18
S'0x10'
p4121
sg20
g21
ssS'353178628'
p4122
(dp4123
g3
g24
sg5
S'1314'
p4124
sS'FEC FED crate'
p4125
S'up center'
p4126
sg9
g56
sg11
g29
sg13
S'0x7d'
p4127
sg15
S'41/42'
p4128
sg17
g4122
sg18
S'0x12'
p4129
sg20
g21
ssS'344790020'
p4130
(dp4131
g3
g24
sg5
S'1338'
p4132
sS'FEC FED crate'
p4133
S'bottom'
p4134
sg9
g56
sg11
g29
sg13
S'0x7b'
p4135
sg15
S'45/46'
p4136
sg17
g4130
sg18
S'0x12'
p4137
sg20
g21
ssS'353318916'
p4138
(dp4139
g3
g24
sg5
S'1301'
p4140
sS'FEC FED crate'
p4141
S'top'
p4142
sg9
g10
sg11
g29
sg13
S'0x7b'
p4143
sg15
S'43/44'
p4144
sg17
g4138
sg18
S'0x12'
p4145
sg20
g21
ssS'353260548'
p4146
(dp4147
g3
g4
sg5
S'1310'
p4148
sS'FEC FED crate'
p4149
S'up center'
p4150
sg9
g28
sg11
g29
sg13
S'0x7c'
p4151
sg15
S'21/22'
p4152
sg17
g4146
sg18
S'0x12'
p4153
sg20
g21
ssS'344504324'
p4154
(dp4155
g3
g24
sg5
S'1334'
p4156
sS'FEC FED crate'
p4157
S'bottom'
p4158
sg9
g28
sg11
g29
sg13
S'0x7e'
p4159
sg15
S'39/40'
p4160
sg17
g4154
sg18
S'0x11'
p4161
sg20
g21
ssS'344586244'
p4162
(dp4163
g3
g4
sg5
S'1320'
p4164
sS'FEC FED crate'
p4165
S'down center'
p4166
sg9
g84
sg11
g29
sg13
S'0x7b'
p4167
sg15
S'11/12'
p4168
sg17
g4162
sg18
S'0x11'
p4169
sg20
g21
ssS'344323076'
p4170
(dp4171
g3
g4
sg5
S'1320'
p4172
sS'FEC FED crate'
p4173
S'down center'
p4174
sg9
g84
sg11
g29
sg13
S'0x7b'
p4175
sg15
S'1/2'
p4176
sg17
g4170
sg18
S'0x10'
p4177
sg20
g21
ssS'344617988'
p4178
(dp4179
g3
g4
sg5
S'1335'
p4180
sS'FEC FED crate'
p4181
S'bottom'
p4182
sg9
g38
sg11
g29
sg13
S'0x7e'
p4183
sg15
S'9/10'
p4184
sg17
g4178
sg18
S'0x11'
p4185
sg20
g21
ssS'353171460'
p4186
(dp4187
g3
g24
sg5
S'1313'
p4188
sS'FEC FED crate'
p4189
S'up center'
p4190
sg9
g10
sg11
g29
sg13
S'0x7d'
p4191
sg15
S'43/44'
p4192
sg17
g4186
sg18
S'0x12'
p4193
sg20
g21
ssS'352965636'
p4194
(dp4195
g3
g4
sg5
S'1297'
p4196
sS'FEC FED crate'
p4197
S'top'
p4198
sg9
g47
sg11
g29
sg13
S'0x7d'
p4199
sg15
S'13/14'
p4200
sg17
g4194
sg18
S'0x11'
p4201
sg20
g21
ssS'352667652'
p4202
(dp4203
g3
g24
sg5
S'1301'
p4204
sS'FEC FED crate'
p4205
S'top'
p4206
sg9
g10
sg11
S'10'
p4207
sg13
S'0x7b'
p4208
sg15
S'31/32'
p4209
sg17
g4202
sg18
S'0x10'
p4210
sg20
g21
ssS'344938500'
p4211
(dp4212
g3
g4
sg5
S'1325'
p4213
sS'FEC FED crate'
p4214
S'down center'
p4215
sg9
g10
sg11
g29
sg13
S'0x7e'
p4216
sg15
S'19/20'
p4217
sg17
g4211
sg18
S'0x12'
p4218
sg20
g21
ssS'344605700'
p4219
(dp4220
g3
g24
sg5
S'1333'
p4221
sS'FEC FED crate'
p4222
S'bottom'
p4223
sg9
g47
sg11
g29
sg13
S'0x7e'
p4224
sg15
S'33/34'
p4225
sg17
g4219
sg18
S'0x11'
p4226
sg20
g21
ssS'353265668'
p4227
(dp4228
g3
g24
sg5
S'1310'
p4229
sS'FEC FED crate'
p4230
S'up center'
p4231
sg9
g28
sg11
g29
sg13
S'0x7c'
p4232
sg15
S'43/44'
p4233
sg17
g4227
sg18
S'0x12'
p4234
sg20
g21
ssS'352786436'
p4235
(dp4236
g3
g24
sg5
S'1302'
p4237
sS'FEC FED crate'
p4238
S'top'
p4239
sg9
g56
sg11
S'10'
p4240
sg13
S'0x7b'
p4241
sg15
S'27/28'
p4242
sg17
g4235
sg18
S'0x10'
p4243
sg20
g21
ssS'344249348'
p4244
(dp4245
g3
g24
sg5
S'1335'
p4246
sS'FEC FED crate'
p4247
S'bottom'
p4248
sg9
g38
sg11
S'10'
p4249
sg13
S'0x7c'
p4250
sg15
S'25/26'
p4251
sg17
g4244
sg18
S'0x10'
p4252
sg20
g21
ssS'353167364'
p4253
(dp4254
g3
g24
sg5
S'1312'
p4255
sS'FEC FED crate'
p4256
S'up center'
p4257
sg9
g66
sg11
g29
sg13
S'0x7e'
p4258
sg15
S'47/48'
p4259
sg17
g4253
sg18
S'0x12'
p4260
sg20
g21
ssS'353196036'
p4261
(dp4262
g3
g24
sg5
S'1300'
p4263
sS'FEC FED crate'
p4264
S'top'
p4265
sg9
g66
sg11
g29
sg13
S'0x7c'
p4266
sg15
S'43/44'
p4267
sg17
g4261
sg18
S'0x12'
p4268
sg20
g21
ssS'352966660'
p4269
(dp4270
g3
g4
sg5
S'1297'
p4271
sS'FEC FED crate'
p4272
S'top'
p4273
sg9
g47
sg11
g29
sg13
S'0x7d'
p4274
sg15
S'15/16'
p4275
sg17
g4269
sg18
S'0x11'
p4276
sg20
g21
ssS'344409092'
p4277
(dp4278
g3
g4
sg5
S'1325'
p4279
sS'FEC FED crate'
p4280
S'down center'
p4281
sg9
g10
sg11
S'10'
p4282
sg13
S'0x7d'
p4283
sg15
S'5/6'
p4284
sg17
g4277
sg18
S'0x10'
p4285
sg20
g21
ssS'353125380'
p4286
(dp4287
g3
g4
sg5
S'1297'
p4288
sS'FEC FED crate'
p4289
S'top'
p4290
sg9
g47
sg11
g29
sg13
S'0x7d'
p4291
sg15
S'17/18'
p4292
sg17
g4286
sg18
S'0x12'
p4293
sg20
g21
ssS'353306628'
p4294
(dp4295
g3
g24
sg5
S'1314'
p4296
sS'FEC FED crate'
p4297
S'up center'
p4298
sg9
g56
sg11
g29
sg13
S'0x7d'
p4299
sg15
S'47/48'
p4300
sg17
g4294
sg18
S'0x12'
p4301
sg20
g21
ssS'344822788'
p4302
(dp4303
g3
g24
sg5
S'1322'
p4304
sS'FEC FED crate'
p4305
S'down center'
p4306
sg9
g28
sg11
g29
sg13
S'0x7c'
p4307
sg15
S'41/42'
p4308
sg17
g4302
sg18
S'0x12'
p4309
sg20
g21
ssS'344482820'
p4310
(dp4311
g3
g4
sg5
S'1320'
p4312
sS'FEC FED crate'
p4313
S'down center'
p4314
sg9
g84
sg11
g29
sg13
S'0x7b'
p4315
sg15
S'13/14'
p4316
sg17
g4310
sg18
S'0x11'
p4317
sg20
g21
ssS'344839172'
p4318
(dp4319
g3
g4
sg5
S'1321'
p4320
sS'FEC FED crate'
p4321
S'down center'
p4322
sg9
g47
sg11
g29
sg13
S'0x7b'
p4323
sg15
S'17/18'
p4324
sg17
g4318
sg18
S'0x12'
p4325
sg20
g21
ssS'344332292'
p4326
(dp4327
g3
g24
sg5
S'1332'
p4328
sS'FEC FED crate'
p4329
S'bottom'
p4330
sg9
g84
sg11
g29
sg13
S'0x7d'
p4331
sg15
S'31/32'
p4332
sg17
g4326
sg18
S'0x10'
p4333
sg20
g21
ssS'344266756'
p4334
(dp4335
g3
g24
sg5
S'1338'
p4336
sS'FEC FED crate'
p4337
S'bottom'
p4338
sg9
g56
sg11
S'10'
p4339
sg13
S'0x7b'
p4340
sg15
S'31/32'
p4341
sg17
g4334
sg18
S'0x10'
p4342
sg20
g21
ssS'344581124'
p4343
(dp4344
g3
g24
sg5
S'1320'
p4345
sS'FEC FED crate'
p4346
S'down center'
p4347
sg9
g84
sg11
g29
sg13
S'0x7b'
p4348
sg15
S'33/34'
p4349
sg17
g4343
sg18
S'0x11'
p4350
sg20
g21
ssS'352916484'
p4351
(dp4352
g3
g24
sg5
S'1314'
p4353
sS'FEC FED crate'
p4354
S'up center'
p4355
sg9
g56
sg11
S'10'
p4356
sg13
S'0x7d'
p4357
sg15
S'33/34'
p4358
sg17
g4351
sg18
S'0x11'
p4359
sg20
g21
ssS'352621572'
p4360
(dp4361
g3
g4
sg5
S'1309'
p4362
sS'FEC FED crate'
p4363
S'up center'
p4364
sg9
g47
sg11
g29
sg13
S'0x7b'
p4365
sg15
S'5/6'
p4366
sg17
g4360
sg18
S'0x10'
p4367
sg20
g21
ssS'352638980'
p4368
(dp4369
g3
g4
sg5
S'1312'
p4370
sS'FEC FED crate'
p4371
S'up center'
p4372
sg9
g66
sg11
S'10'
p4373
sg13
S'0x7e'
p4374
sg15
S'7/8'
p4375
sg17
g4368
sg18
S'0x10'
p4376
sg20
g21
ssS'344741892'
p4377
(dp4378
g3
g24
sg5
S'1320'
p4379
sS'FEC FED crate'
p4380
S'down center'
p4381
sg9
g84
sg11
g29
sg13
S'0x7b'
p4382
sg15
S'47/48'
p4383
sg17
g4377
sg18
S'0x12'
p4384
sg20
g21
ssS'344916996'
p4385
(dp4386
g3
g24
sg5
S'1338'
p4387
sS'FEC FED crate'
p4388
S'bottom'
p4389
sg9
g56
sg11
g29
sg13
S'0x7b'
p4390
sg15
S'41/42'
p4391
sg17
g4385
sg18
S'0x12'
p4392
sg20
g21
ssS'344892420'
p4393
(dp4394
g3
g4
sg5
S'1336'
p4395
sS'FEC FED crate'
p4396
S'bottom'
p4397
sg9
g66
sg11
g29
sg13
S'0x7c'
p4398
sg15
S'17/18'
p4399
sg17
g4393
sg18
S'0x12'
p4400
sg20
g21
ssS'352774148'
p4401
(dp4402
g3
g24
sg5
S'1313'
p4403
sS'FEC FED crate'
p4404
S'up center'
p4405
sg9
g10
sg11
S'10'
p4406
sg13
S'0x7d'
p4407
sg15
S'31/32'
p4408
sg17
g4401
sg18
S'0x10'
p4409
sg20
g21
ssS'353174532'
p4410
(dp4411
g3
g4
sg5
S'1314'
p4412
sS'FEC FED crate'
p4413
S'up center'
p4414
sg9
g56
sg11
g29
sg13
S'0x7d'
p4415
sg15
S'17/18'
p4416
sg17
g4410
sg18
S'0x12'
p4417
sg20
g21
ssS'344540164'
p4418
(dp4419
g3
g24
sg5
S'1325'
p4420
sS'FEC FED crate'
p4421
S'down center'
p4422
sg9
g10
sg11
S'10'
p4423
sg13
S'0x7d'
p4424
sg15
S'33/34'
p4425
sg17
g4418
sg18
S'0x11'
p4426
sg20
g21
ssS'353072132'
p4427
(dp4428
g3
g4
sg5
S'1300'
p4429
sS'FEC FED crate'
p4430
S'top'
p4431
sg9
g66
sg11
S'10'
p4432
sg13
S'0x7c'
p4433
sg15
S'9/10'
p4434
sg17
g4427
sg18
S'0x11'
p4435
sg20
g21
ssS'352856068'
p4436
(dp4437
g3
g24
sg5
S'1298'
p4438
sS'FEC FED crate'
p4439
S'top'
p4440
sg9
g28
sg11
g29
sg13
S'0x7e'
p4441
sg15
S'39/40'
p4442
sg17
g4436
sg18
S'0x11'
p4443
sg20
g21
ssS'344564740'
p4444
(dp4445
g3
g4
sg5
S'1322'
p4446
sS'FEC FED crate'
p4447
S'down center'
p4448
sg9
g28
sg11
g29
sg13
S'0x7c'
p4449
sg15
S'13/14'
p4450
sg17
g4444
sg18
S'0x11'
p4451
sg20
g21
ssS'352741380'
p4452
(dp4453
g3
g24
sg5
S'1310'
p4454
sS'FEC FED crate'
p4455
S'up center'
p4456
sg9
g28
sg11
g29
sg13
S'0x7c'
p4457
sg15
S'27/28'
p4458
sg17
g4452
sg18
S'0x10'
p4459
sg20
g21
ssS'344328196'
p4460
(dp4461
g3
g4
sg5
S'1332'
p4462
sS'FEC FED crate'
p4463
S'bottom'
p4464
sg9
g84
sg11
g29
sg13
S'0x7d'
p4465
sg15
S'7/8'
p4466
sg17
g4460
sg18
S'0x10'
p4467
sg20
g21
ssS'352933892'
p4468
(dp4469
g3
g24
sg5
S'1300'
p4470
sS'FEC FED crate'
p4471
S'top'
p4472
sg9
g66
sg11
S'10'
p4473
sg13
S'0x7c'
p4474
sg15
S'35/36'
p4475
sg17
g4468
sg18
S'0x11'
p4476
sg20
g21
ssS'353117188'
p4477
(dp4478
g3
g24
sg5
S'1298'
p4479
sS'FEC FED crate'
p4480
S'top'
p4481
sg9
g28
sg11
g29
sg13
S'0x7e'
p4482
sg15
S'45/46'
p4483
sg17
g4477
sg18
S'0x12'
p4484
sg20
g21
ssS'344500228'
p4485
(dp4486
g3
g4
sg5
S'1334'
p4487
sS'FEC FED crate'
p4488
S'bottom'
p4489
sg9
g28
sg11
g29
sg13
S'0x7e'
p4490
sg15
S'15/16'
p4491
sg17
g4485
sg18
S'0x11'
p4492
sg20
g21
ssS'352757764'
p4493
(dp4494
g3
g4
sg5
S'1312'
p4495
sS'FEC FED crate'
p4496
S'up center'
p4497
sg9
g66
sg11
S'10'
p4498
sg13
S'0x7e'
p4499
sg15
S'3/4'
p4500
sg17
g4493
sg18
S'0x10'
p4501
sg20
g21
ssS'352601092'
p4502
(dp4503
g3
g4
sg5
S'1297'
p4504
sS'FEC FED crate'
p4505
S'top'
p4506
sg9
g47
sg11
g29
sg13
S'0x7d'
p4507
sg15
S'1/2'
p4508
sg17
g4502
sg18
S'0x10'
p4509
sg20
g21
ssS'344684548'
p4510
(dp4511
g3
g4
sg5
S'1324'
p4512
sS'FEC FED crate'
p4513
S'down center'
p4514
sg9
g66
sg11
S'10'
p4515
sg13
S'0x7e'
p4516
sg15
S'11/12'
p4517
sg17
g4510
sg18
S'0x11'
p4518
sg20
g21
ssS'344688644'
p4519
(dp4520
g3
g24
sg5
S'1323'
p4521
sS'FEC FED crate'
p4522
S'down center'
p4523
sg9
g38
sg11
S'10'
p4524
sg13
S'0x7e'
p4525
sg15
S'35/36'
p4526
sg17
g4519
sg18
S'0x11'
p4527
sg20
g21
ssS'344413188'
p4528
(dp4529
g3
g4
sg5
S'1325'
p4530
sS'FEC FED crate'
p4531
S'down center'
p4532
sg9
g10
sg11
S'10'
p4533
sg13
S'0x7e'
p4534
sg15
S'1/2'
p4535
sg17
g4528
sg18
S'0x10'
p4536
sg20
g21
ssS'353286148'
p4537
(dp4538
g3
g24
sg5
S'1312'
p4539
sS'FEC FED crate'
p4540
S'up center'
p4541
sg9
g66
sg11
g29
sg13
S'0x7e'
p4542
sg15
S'43/44'
p4543
sg17
g4537
sg18
S'0x12'
p4544
sg20
g21
ssS'344896516'
p4545
(dp4546
g3
g24
sg5
S'1336'
p4547
sS'FEC FED crate'
p4548
S'bottom'
p4549
sg9
g66
sg11
g29
sg13
S'0x7c'
p4550
sg15
S'45/46'
p4551
sg17
g4545
sg18
S'0x12'
p4552
sg20
g21
ssS'353191940'
p4553
(dp4554
g3
g24
sg5
S'1301'
p4555
sS'FEC FED crate'
p4556
S'top'
p4557
sg9
g10
sg11
g29
sg13
S'0x7b'
p4558
sg15
S'47/48'
p4559
sg17
g4553
sg18
S'0x12'
p4560
sg20
g21
ssS'344823812'
p4561
(dp4562
g3
g24
sg5
S'1322'
p4563
sS'FEC FED crate'
p4564
S'down center'
p4565
sg9
g28
sg11
g29
sg13
S'0x7c'
p4566
sg15
S'43/44'
p4567
sg17
g4561
sg18
S'0x12'
p4568
sg20
g21
ssS'344744964'
p4569
(dp4570
g3
g4
sg5
S'1320'
p4571
sS'FEC FED crate'
p4572
S'down center'
p4573
sg9
g84
sg11
g29
sg13
S'0x7b'
p4574
sg15
S'21/22'
p4575
sg17
g4569
sg18
S'0x12'
p4576
sg20
g21
ssS'352917508'
p4577
(dp4578
g3
g24
sg5
S'1314'
p4579
sS'FEC FED crate'
p4580
S'up center'
p4581
sg9
g56
sg11
S'10'
p4582
sg13
S'0x7d'
p4583
sg15
S'35/36'
p4584
sg17
g4577
sg18
S'0x11'
p4585
sg20
g21
ssS'344912900'
p4586
(dp4587
g3
g4
sg5
S'1338'
p4588
sS'FEC FED crate'
p4589
S'bottom'
p4590
sg9
g56
sg11
g29
sg13
S'0x7b'
p4591
sg15
S'17/18'
p4592
sg17
g4586
sg18
S'0x12'
p4593
sg20
g21
ssS'352625668'
p4594
(dp4595
g3
g4
sg5
S'1310'
p4596
sS'FEC FED crate'
p4597
S'up center'
p4598
sg9
g28
sg11
g29
sg13
S'0x7c'
p4599
sg15
S'1/2'
p4600
sg17
g4594
sg18
S'0x10'
p4601
sg20
g21
ssS'344355844'
p4602
(dp4603
g3
g4
sg5
S'1335'
p4604
sS'FEC FED crate'
p4605
S'bottom'
p4606
sg9
g38
sg11
g29
sg13
S'0x7e'
p4607
sg15
S'1/2'
p4608
sg17
g4602
sg18
S'0x10'
p4609
sg20
g21
ssS'344315908'
p4610
(dp4611
g3
g4
sg5
S'1321'
p4612
sS'FEC FED crate'
p4613
S'down center'
p4614
sg9
g47
sg11
g29
sg13
S'0x7b'
p4615
sg15
S'3/4'
p4616
sg17
g4610
sg18
S'0x10'
p4617
sg20
g21
ssS'344283140'
p4618
(dp4619
g3
g24
sg5
S'1324'
p4620
sS'FEC FED crate'
p4621
S'down center'
p4622
sg9
g66
sg11
S'10'
p4623
sg13
S'0x7e'
p4624
sg15
S'31/32'
p4625
sg17
g4618
sg18
S'0x10'
p4626
sg20
g21
ssS'353047556'
p4627
(dp4628
g3
g24
sg5
S'1302'
p4629
sS'FEC FED crate'
p4630
S'top'
p4631
sg9
g56
sg11
S'10'
p4632
sg13
S'0x7b'
p4633
sg15
S'33/34'
p4634
sg17
g4627
sg18
S'0x11'
p4635
sg20
g21
ssS'344728580'
p4636
(dp4637
g3
g4
sg5
S'1323'
p4638
sS'FEC FED crate'
p4639
S'down center'
p4640
sg9
g38
sg11
g29
sg13
S'0x7c'
p4641
sg15
S'17/18'
p4642
sg17
g4636
sg18
S'0x12'
p4643
sg20
g21
ssS'353212420'
p4644
(dp4645
g3
g24
sg5
S'1298'
p4646
sS'FEC FED crate'
p4647
S'top'
p4648
sg9
g28
sg11
g29
sg13
S'0x7e'
p4649
sg15
S'43/44'
p4650
sg17
g4644
sg18
S'0x12'
p4651
sg20
g21
ssS'344496132'
p4652
(dp4653
g3
g4
sg5
S'1333'
p4654
sS'FEC FED crate'
p4655
S'bottom'
p4656
sg9
g47
sg11
g29
sg13
S'0x7d'
p4657
sg15
S'11/12'
p4658
sg17
g4652
sg18
S'0x11'
p4659
sg20
g21
ssS'344782852'
p4660
(dp4661
g3
g24
sg5
S'1337'
p4662
sS'FEC FED crate'
p4663
S'bottom'
p4664
sg9
g10
sg11
g29
sg13
S'0x7b'
p4665
sg15
S'47/48'
p4666
sg17
g4660
sg18
S'0x12'
p4667
sg20
g21
ssS'344627204'
p4668
(dp4669
g3
g4
sg5
S'1336'
p4670
sS'FEC FED crate'
p4671
S'bottom'
p4672
sg9
g66
sg11
S'10'
p4673
sg13
S'0x7c'
p4674
sg15
S'15/16'
p4675
sg17
g4668
sg18
S'0x11'
p4676
sg20
g21
ssS'344945668'
p4677
(dp4678
g3
g4
sg5
S'1324'
p4679
sS'FEC FED crate'
p4680
S'down center'
p4681
sg9
g66
sg11
g29
sg13
S'0x7e'
p4682
sg15
S'17/18'
p4683
sg17
g4677
sg18
S'0x12'
p4684
sg20
g21
ssS'344246276'
p4685
(dp4686
g3
g4
sg5
S'1335'
p4687
sS'FEC FED crate'
p4688
S'bottom'
p4689
sg9
g38
sg11
g29
sg13
S'0x7e'
p4690
sg15
S'7/8'
p4691
sg17
g4685
sg18
S'0x10'
p4692
sg20
g21
ssS'344311812'
p4693
(dp4694
g3
g24
sg5
S'1321'
p4695
sS'FEC FED crate'
p4696
S'down center'
p4697
sg9
g47
sg11
g29
sg13
S'0x7b'
p4698
sg15
S'27/28'
p4699
sg17
g4693
sg18
S'0x10'
p4700
sg20
g21
ssS'344232964'
p4701
(dp4702
g3
g4
sg5
S'1333'
p4703
sS'FEC FED crate'
p4704
S'bottom'
p4705
sg9
g47
sg11
g29
sg13
S'0x7d'
p4706
sg15
S'1/2'
p4707
sg17
g4701
sg18
S'0x10'
p4708
sg20
g21
ssS'344619012'
p4709
(dp4710
g3
g4
sg5
S'1335'
p4711
sS'FEC FED crate'
p4712
S'bottom'
p4713
sg9
g38
sg11
g29
sg13
S'0x7e'
p4714
sg15
S'11/12'
p4715
sg17
g4709
sg18
S'0x11'
p4716
sg20
g21
ssS'352642052'
p4717
(dp4718
g3
g24
sg5
S'1312'
p4719
sS'FEC FED crate'
p4720
S'up center'
p4721
sg9
g66
sg11
S'10'
p4722
sg13
S'0x7e'
p4723
sg15
S'29/30'
p4724
sg17
g4717
sg18
S'0x10'
p4725
sg20
g21
ssS'344930308'
p4726
(dp4727
g3
g24
sg5
S'1325'
p4728
sS'FEC FED crate'
p4729
S'down center'
p4730
sg9
g10
sg11
g29
sg13
S'0x7d'
p4731
sg15
S'47/48'
p4732
sg17
g4726
sg18
S'0x12'
p4733
sg20
g21
ssS'352888836'
p4734
(dp4735
g3
g4
sg5
S'1310'
p4736
sS'FEC FED crate'
p4737
S'up center'
p4738
sg9
g28
sg11
g29
sg13
S'0x7c'
p4739
sg15
S'11/12'
p4740
sg17
g4734
sg18
S'0x11'
p4741
sg20
g21
ssS'344803332'
p4742
(dp4743
g3
g24
sg5
S'1325'
p4744
sS'FEC FED crate'
p4745
S'down center'
p4746
sg9
g10
sg11
g29
sg13
S'0x7d'
p4747
sg15
S'43/44'
p4748
sg17
g4742
sg18
S'0x12'
p4749
sg20
g21
ssS'344922116'
p4750
(dp4751
g3
g24
sg5
S'1326'
p4752
sS'FEC FED crate'
p4753
S'down center'
p4754
sg9
g56
sg11
g29
sg13
S'0x7d'
p4755
sg15
S'47/48'
p4756
sg17
g4750
sg18
S'0x12'
p4757
sg20
g21
ssS'352589828'
p4758
(dp4759
g3
g4
sg5
S'1299'
p4760
sS'FEC FED crate'
p4761
S'top'
p4762
sg9
g38
sg11
g29
sg13
S'0x7e'
p4763
sg15
S'7/8'
p4764
sg17
g4758
sg18
S'0x10'
p4765
sg20
g21
ssS'344622084'
p4766
(dp4767
g3
g24
sg5
S'1335'
p4768
sS'FEC FED crate'
p4769
S'bottom'
p4770
sg9
g38
sg11
S'10'
p4771
sg13
S'0x7c'
p4772
sg15
S'37/38'
p4773
sg17
g4766
sg18
S'0x11'
p4774
sg20
g21
ssS'344836100'
p4775
(dp4776
g3
g24
sg5
S'1321'
p4777
sS'FEC FED crate'
p4778
S'down center'
p4779
sg9
g47
sg11
g29
sg13
S'0x7b'
p4780
sg15
S'43/44'
p4781
sg17
g4775
sg18
S'0x12'
p4782
sg20
g21
ssS'344201220'
p4783
(dp4784
g3
g24
sg5
S'1323'
p4785
sS'FEC FED crate'
p4786
S'down center'
p4787
sg9
g38
sg11
S'10'
p4788
sg13
S'0x7e'
p4789
sg15
S'31/32'
p4790
sg17
g4783
sg18
S'0x10'
p4791
sg20
g21
ssS'344844292'
p4792
(dp4793
g3
g24
sg5
S'1320'
p4794
sS'FEC FED crate'
p4795
S'down center'
p4796
sg9
g84
sg11
g29
sg13
S'0x7b'
p4797
sg15
S'43/44'
p4798
sg17
g4792
sg18
S'0x12'
p4799
sg20
g21
ssS'344536068'
p4800
(dp4801
g3
g4
sg5
S'1326'
p4802
sS'FEC FED crate'
p4803
S'down center'
p4804
sg9
g56
sg11
S'10'
p4805
sg13
S'0x7d'
p4806
sg15
S'9/10'
p4807
sg17
g4800
sg18
S'0x11'
p4808
sg20
g21
ssS'352629764'
p4809
(dp4810
g3
g4
sg5
S'1311'
p4811
sS'FEC FED crate'
p4812
S'up center'
p4813
sg9
g38
sg11
g29
sg13
S'0x7c'
p4814
sg15
S'1/2'
p4815
sg17
g4809
sg18
S'0x10'
p4816
sg20
g21
ssS'344791044'
p4817
(dp4818
g3
g24
sg5
S'1338'
p4819
sS'FEC FED crate'
p4820
S'bottom'
p4821
sg9
g56
sg11
g29
sg13
S'0x7b'
p4822
sg15
S'47/48'
p4823
sg17
g4817
sg18
S'0x12'
p4824
sg20
g21
ssS'344602628'
p4825
(dp4826
g3
g24
sg5
S'1333'
p4827
sS'FEC FED crate'
p4828
S'bottom'
p4829
sg9
g47
sg11
g29
sg13
S'0x7d'
p4830
sg15
S'39/40'
p4831
sg17
g4825
sg18
S'0x11'
p4832
sg20
g21
ssS'353048580'
p4833
(dp4834
g3
g24
sg5
S'1302'
p4835
sS'FEC FED crate'
p4836
S'top'
p4837
sg9
g56
sg11
S'10'
p4838
sg13
S'0x7b'
p4839
sg15
S'35/36'
p4840
sg17
g4833
sg18
S'0x11'
p4841
sg20
g21
ssS'344798212'
p4842
(dp4843
g3
g4
sg5
S'1326'
p4844
sS'FEC FED crate'
p4845
S'down center'
p4846
sg9
g56
sg11
g29
sg13
S'0x7d'
p4847
sg15
S'17/18'
p4848
sg17
g4842
sg18
S'0x12'
p4849
sg20
g21
ssS'353249284'
p4850
(dp4851
g3
g4
sg5
S'1309'
p4852
sS'FEC FED crate'
p4853
S'up center'
p4854
sg9
g47
sg11
g29
sg13
S'0x7b'
p4855
sg15
S'19/20'
p4856
sg17
g4850
sg18
S'0x12'
p4857
sg20
g21
ssS'352875524'
p4858
(dp4859
g3
g4
sg5
S'1308'
p4860
sS'FEC FED crate'
p4861
S'up center'
p4862
sg9
g84
sg11
g29
sg13
S'0x7b'
p4863
sg15
S'13/14'
p4864
sg17
g4858
sg18
S'0x11'
p4865
sg20
g21
ssS'353182724'
p4866
(dp4867
g3
g24
sg5
S'1302'
p4868
sS'FEC FED crate'
p4869
S'top'
p4870
sg9
g56
sg11
g29
sg13
S'0x7b'
p4871
sg15
S'45/46'
p4872
sg17
g4866
sg18
S'0x12'
p4873
sg20
g21
ssS'353166340'
p4874
(dp4875
g3
g24
sg5
S'1312'
p4876
sS'FEC FED crate'
p4877
S'up center'
p4878
sg9
g66
sg11
g29
sg13
S'0x7e'
p4879
sg15
S'45/46'
p4880
sg17
g4874
sg18
S'0x12'
p4881
sg20
g21
ssS'344675332'
p4882
(dp4883
g3
g4
sg5
S'1325'
p4884
sS'FEC FED crate'
p4885
S'down center'
p4886
sg9
g10
sg11
S'10'
p4887
sg13
S'0x7e'
p4888
sg15
S'9/10'
p4889
sg17
g4882
sg18
S'0x11'
p4890
sg20
g21
ssS'352798724'
p4891
(dp4892
g3
g4
sg5
S'1301'
p4893
sS'FEC FED crate'
p4894
S'top'
p4895
sg9
g10
sg11
S'10'
p4896
sg13
S'0x7b'
p4897
sg15
S'3/4'
p4898
sg17
g4891
sg18
S'0x10'
p4899
sg20
g21
ssS'352602116'
p4900
(dp4901
g3
g4
sg5
S'1297'
p4902
sS'FEC FED crate'
p4903
S'top'
p4904
sg9
g47
sg11
g29
sg13
S'0x7d'
p4905
sg15
S'3/4'
p4906
sg17
g4900
sg18
S'0x10'
p4907
sg20
g21
ssS'352883716'
p4908
(dp4909
g3
g4
sg5
S'1309'
p4910
sS'FEC FED crate'
p4911
S'up center'
p4912
sg9
g47
sg11
g29
sg13
S'0x7b'
p4913
sg15
S'13/14'
p4914
sg17
g4908
sg18
S'0x11'
p4915
sg20
g21
ssS'344807428'
p4916
(dp4917
g3
g24
sg5
S'1324'
p4918
sS'FEC FED crate'
p4919
S'down center'
p4920
sg9
g66
sg11
g29
sg13
S'0x7e'
p4921
sg15
S'47/48'
p4922
sg17
g4916
sg18
S'0x12'
p4923
sg20
g21
ssS'344750084'
p4924
(dp4925
g3
g4
sg5
S'1332'
p4926
sS'FEC FED crate'
p4927
S'bottom'
p4928
sg9
g84
sg11
g29
sg13
S'0x7d'
p4929
sg15
S'19/20'
p4930
sg17
g4924
sg18
S'0x12'
p4931
sg20
g21
ssS'344307716'
p4932
(dp4933
g3
g24
sg5
S'1321'
p4934
sS'FEC FED crate'
p4935
S'down center'
p4936
sg9
g47
sg11
g29
sg13
S'0x7c'
p4937
sg15
S'31/32'
p4938
sg17
g4932
sg18
S'0x10'
p4939
sg20
g21
ssS'344339460'
p4940
(dp4941
g3
g24
sg5
S'1333'
p4942
sS'FEC FED crate'
p4943
S'bottom'
p4944
sg9
g47
sg11
g29
sg13
S'0x7d'
p4945
sg15
S'29/30'
p4946
sg17
g4940
sg18
S'0x10'
p4947
sg20
g21
ssS'344765444'
p4948
(dp4949
g3
g24
sg5
S'1334'
p4950
sS'FEC FED crate'
p4951
S'bottom'
p4952
sg9
g28
sg11
g29
sg13
S'0x7e'
p4953
sg15
S'45/46'
p4954
sg17
g4948
sg18
S'0x12'
p4955
sg20
g21
ssS'353118212'
p4956
(dp4957
g3
g24
sg5
S'1298'
p4958
sS'FEC FED crate'
p4959
S'top'
p4960
sg9
g28
sg11
g29
sg13
S'0x7e'
p4961
sg15
S'47/48'
p4962
sg17
g4956
sg18
S'0x12'
p4963
sg20
g21
ssS'352793604'
p4964
(dp4965
g3
g24
sg5
S'1301'
p4966
sS'FEC FED crate'
p4967
S'top'
p4968
sg9
g10
sg11
S'10'
p4969
sg13
S'0x7b'
p4970
sg15
S'25/26'
p4971
sg17
g4964
sg18
S'0x10'
p4972
sg20
g21
ssS'353199108'
p4973
(dp4974
g3
g24
sg5
S'1299'
p4975
sS'FEC FED crate'
p4976
S'top'
p4977
sg9
g38
sg11
g29
sg13
S'0x7c'
p4978
sg15
S'41/42'
p4979
sg17
g4973
sg18
S'0x12'
p4980
sg20
g21
ssS'353272836'
p4981
(dp4982
g3
g4
sg5
S'1311'
p4983
sS'FEC FED crate'
p4984
S'up center'
p4985
sg9
g38
sg11
g29
sg13
S'0x7c'
p4986
sg15
S'21/22'
p4987
sg17
g4981
sg18
S'0x12'
p4988
sg20
g21
ssS'344269828'
p4989
(dp4990
g3
g24
sg5
S'1326'
p4991
sS'FEC FED crate'
p4992
S'down center'
p4993
sg9
g56
sg11
S'10'
p4994
sg13
S'0x7d'
p4995
sg15
S'25/26'
p4996
sg17
g4989
sg18
S'0x10'
p4997
sg20
g21
ssS'344381444'
p4998
(dp4999
g3
g4
sg5
S'1337'
p5000
sS'FEC FED crate'
p5001
S'bottom'
p5002
sg9
g10
sg11
S'10'
p5003
sg13
S'0x7b'
p5004
sg15
S'3/4'
p5005
sg17
g4998
sg18
S'0x10'
p5006
sg20
g21
ssS'344667140'
p5007
(dp5008
g3
g24
sg5
S'1325'
p5009
sS'FEC FED crate'
p5010
S'down center'
p5011
sg9
g10
sg11
S'10'
p5012
sg13
S'0x7d'
p5013
sg15
S'37/38'
p5014
sg17
g5007
sg18
S'0x11'
p5015
sg20
g21
ssS'352995332'
p5016
(dp5017
g3
g24
sg5
S'1309'
p5018
sS'FEC FED crate'
p5019
S'up center'
p5020
sg9
g47
sg11
g29
sg13
S'0x7c'
p5021
sg15
S'39/40'
p5022
sg17
g5016
sg18
S'0x11'
p5023
sg20
g21
ssS'353334276'
p5024
(dp5025
g3
g4
sg5
S'1300'
p5026
sS'FEC FED crate'
p5027
S'top'
p5028
sg9
g66
sg11
g29
sg13
S'0x7c'
p5029
sg15
S'17/18'
p5030
sg17
g5024
sg18
S'0x12'
p5031
sg20
g21
ssS'353179652'
p5032
(dp5033
g3
g24
sg5
S'1314'
p5034
sS'FEC FED crate'
p5035
S'up center'
p5036
sg9
g56
sg11
g29
sg13
S'0x7d'
p5037
sg15
S'43/44'
p5038
sg17
g5032
sg18
S'0x12'
p5039
sg20
g21
ssS'344643588'
p5040
(dp5041
g3
g4
sg5
S'1337'
p5042
sS'FEC FED crate'
p5043
S'bottom'
p5044
sg9
g10
sg11
S'10'
p5045
sg13
S'0x7b'
p5046
sg15
S'11/12'
p5047
sg17
g5040
sg18
S'0x11'
p5048
sg20
g21
ssS'344299524'
p5049
(dp5050
g3
g24
sg5
S'1322'
p5051
sS'FEC FED crate'
p5052
S'down center'
p5053
sg9
g28
sg11
g29
sg13
S'0x7c'
p5054
sg15
S'27/28'
p5055
sg17
g5049
sg18
S'0x10'
p5056
sg20
g21
ssS'344683524'
p5057
(dp5058
g3
g4
sg5
S'1324'
p5059
sS'FEC FED crate'
p5060
S'down center'
p5061
sg9
g66
sg11
S'10'
p5062
sg13
S'0x7e'
p5063
sg15
S'9/10'
p5064
sg17
g5057
sg18
S'0x11'
p5065
sg20
g21
ssS'344324100'
p5066
(dp5067
g3
g4
sg5
S'1320'
p5068
sS'FEC FED crate'
p5069
S'down center'
p5070
sg9
g84
sg11
g29
sg13
S'0x7b'
p5071
sg15
S'3/4'
p5072
sg17
g5066
sg18
S'0x10'
p5073
sg20
g21
ssS'344680452'
p5074
(dp5075
g3
g24
sg5
S'1324'
p5076
sS'FEC FED crate'
p5077
S'down center'
p5078
sg9
g66
sg11
S'10'
p5079
sg13
S'0x7e'
p5080
sg15
S'35/36'
p5081
sg17
g5074
sg18
S'0x11'
p5082
sg20
g21
ssS'353231876'
p5083
(dp5084
g3
g24
sg5
S'1296'
p5085
sS'FEC FED crate'
p5086
S'top'
p5087
sg9
g84
sg11
g29
sg13
S'0x7d'
p5088
sg15
S'45/46'
p5089
sg17
g5083
sg18
S'0x12'
p5090
sg20
g21
ssS'344659972'
p5091
(dp5092
g3
g24
sg5
S'1326'
p5093
sS'FEC FED crate'
p5094
S'down center'
p5095
sg9
g56
sg11
S'10'
p5096
sg13
S'0x7d'
p5097
sg15
S'39/40'
p5098
sg17
g5091
sg18
S'0x11'
p5099
sg20
g21
ssS'353028100'
p5100
(dp5101
g3
g4
sg5
S'1313'
p5102
sS'FEC FED crate'
p5103
S'up center'
p5104
sg9
g10
sg11
S'10'
p5105
sg13
S'0x7e'
p5106
sg15
S'11/12'
p5107
sg17
g5100
sg18
S'0x11'
p5108
sg20
g21
ssS'344647684'
p5109
(dp5110
g3
g24
sg5
S'1337'
p5111
sS'FEC FED crate'
p5112
S'bottom'
p5113
sg9
g10
sg11
S'10'
p5114
sg13
S'0x7b'
p5115
sg15
S'35/36'
p5116
sg17
g5109
sg18
S'0x11'
p5117
sg20
g21
ssS'352805892'
p5118
(dp5119
g3
g24
sg5
S'1300'
p5120
sS'FEC FED crate'
p5121
S'top'
p5122
sg9
g66
sg11
S'10'
p5123
sg13
S'0x7c'
p5124
sg15
S'29/30'
p5125
sg17
g5118
sg18
S'0x10'
p5126
sg20
g21
ssS'344291332'
p5127
(dp5128
g3
g4
sg5
S'1323'
p5129
sS'FEC FED crate'
p5130
S'down center'
p5131
sg9
g38
sg11
g29
sg13
S'0x7c'
p5132
sg15
S'7/8'
p5133
sg17
g5127
sg18
S'0x10'
p5134
sg20
g21
ssS'344254468'
p5135
(dp5136
g3
g24
sg5
S'1336'
p5137
sS'FEC FED crate'
p5138
S'bottom'
p5139
sg9
g66
sg11
S'10'
p5140
sg13
S'0x7c'
p5141
sg15
S'27/28'
p5142
sg17
g5135
sg18
S'0x10'
p5143
sg20
g21
ssS'353035268'
p5144
(dp5145
g3
g24
sg5
S'1313'
p5146
sS'FEC FED crate'
p5147
S'up center'
p5148
sg9
g10
sg11
S'10'
p5149
sg13
S'0x7d'
p5150
sg15
S'37/38'
p5151
sg17
g5144
sg18
S'0x11'
p5152
sg20
g21
ssS'353208324'
p5153
(dp5154
g3
g4
sg5
S'1299'
p5155
sS'FEC FED crate'
p5156
S'top'
p5157
sg9
g38
sg11
g29
sg13
S'0x7e'
p5158
sg15
S'19/20'
p5159
sg17
g5153
sg18
S'0x12'
p5160
sg20
g21
ssS'344614916'
p5161
(dp5162
g3
g24
sg5
S'1334'
p5163
sS'FEC FED crate'
p5164
S'bottom'
p5165
sg9
g28
sg11
g29
sg13
S'0x7e'
p5166
sg15
S'35/36'
p5167
sg17
g5161
sg18
S'0x11'
p5168
sg20
g21
ssS'344344580'
p5169
(dp5170
g3
g24
sg5
S'1333'
p5171
sS'FEC FED crate'
p5172
S'bottom'
p5173
sg9
g47
sg11
g29
sg13
S'0x7e'
p5174
sg15
S'27/28'
p5175
sg17
g5169
sg18
S'0x10'
p5176
sg20
g21
ssS'344594436'
p5177
(dp5178
g3
g24
sg5
S'1332'
p5179
sS'FEC FED crate'
p5180
S'bottom'
p5181
sg9
g84
sg11
g29
sg13
S'0x7d'
p5182
sg15
S'39/40'
p5183
sg17
g5177
sg18
S'0x11'
p5184
sg20
g21
ssS'352928772'
p5185
(dp5186
g3
g24
sg5
S'1301'
p5187
sS'FEC FED crate'
p5188
S'top'
p5189
sg9
g10
sg11
S'10'
p5190
sg13
S'0x7b'
p5191
sg15
S'37/38'
p5192
sg17
g5185
sg18
S'0x11'
p5193
sg20
g21
ssS'352864260'
p5194
(dp5195
g3
g4
sg5
S'1297'
p5196
sS'FEC FED crate'
p5197
S'top'
p5198
sg9
g47
sg11
g29
sg13
S'0x7d'
p5199
sg15
S'11/12'
p5200
sg17
g5194
sg18
S'0x11'
p5201
sg20
g21
ssS'344376324'
p5202
(dp5203
g3
g4
sg5
S'1337'
p5204
sS'FEC FED crate'
p5205
S'bottom'
p5206
sg9
g10
sg11
S'10'
p5207
sg13
S'0x7c'
p5208
sg15
S'5/6'
p5209
sg17
g5202
sg18
S'0x10'
p5210
sg20
g21
ssS'344777732'
p5211
(dp5212
g3
g24
sg5
S'1336'
p5213
sS'FEC FED crate'
p5214
S'bottom'
p5215
sg9
g66
sg11
g29
sg13
S'0x7c'
p5216
sg15
S'41/42'
p5217
sg17
g5211
sg18
S'0x12'
p5218
sg20
g21
ssS'352781316'
p5219
(dp5220
g3
g24
sg5
S'1314'
p5221
sS'FEC FED crate'
p5222
S'up center'
p5223
sg9
g56
sg11
S'10'
p5224
sg13
S'0x7d'
p5225
sg15
S'29/30'
p5226
sg17
g5219
sg18
S'0x10'
p5227
sg20
g21
ssS'344368132'
p5228
(dp5229
g3
g4
sg5
S'1336'
p5230
sS'FEC FED crate'
p5231
S'bottom'
p5232
sg9
g66
sg11
S'10'
p5233
sg13
S'0x7c'
p5234
sg15
S'1/2'
p5235
sg17
g5228
sg18
S'0x10'
p5236
sg20
g21
ssS'344827908'
p5237
(dp5238
g3
g4
sg5
S'1322'
p5239
sS'FEC FED crate'
p5240
S'down center'
p5241
sg9
g28
sg11
g29
sg13
S'0x7c'
p5242
sg15
S'23/24'
p5243
sg17
g5237
sg18
S'0x12'
p5244
sg20
g21
ssS'353069060'
p5245
(dp5246
g3
g24
sg5
S'1300'
p5247
sS'FEC FED crate'
p5248
S'top'
p5249
sg9
g66
sg11
S'10'
p5250
sg13
S'0x7c'
p5251
sg15
S'39/40'
p5252
sg17
g5245
sg18
S'0x11'
p5253
sg20
g21
ssS'344220676'
p5254
(dp5255
g3
g4
sg5
S'1320'
p5256
sS'FEC FED crate'
p5257
S'down center'
p5258
sg9
g84
sg11
g29
sg13
S'0x7b'
p5259
sg15
S'5/6'
p5260
sg17
g5254
sg18
S'0x10'
p5261
sg20
g21
ssS'344478724'
p5262
(dp5263
g3
g24
sg5
S'1320'
p5264
sS'FEC FED crate'
p5265
S'down center'
p5266
sg9
g84
sg11
g29
sg13
S'0x7b'
p5267
sg15
S'37/38'
p5268
sg17
g5262
sg18
S'0x11'
p5269
sg20
g21
ssS'344467460'
p5270
(dp5271
g3
g4
sg5
S'1323'
p5272
sS'FEC FED crate'
p5273
S'down center'
p5274
sg9
g38
sg11
g29
sg13
S'0x7c'
p5275
sg15
S'11/12'
p5276
sg17
g5270
sg18
S'0x11'
p5277
sg20
g21
ssS'353215492'
p5278
(dp5279
g3
g4
sg5
S'1298'
p5280
sS'FEC FED crate'
p5281
S'top'
p5282
sg9
g28
sg11
g29
sg13
S'0x7e'
p5283
sg15
S'17/18'
p5284
sg17
g5278
sg18
S'0x12'
p5285
sg20
g21
ssS'353227780'
p5286
(dp5287
g3
g4
sg5
S'1297'
p5288
sS'FEC FED crate'
p5289
S'top'
p5290
sg9
g47
sg11
g29
sg13
S'0x7d'
p5291
sg15
S'21/22'
p5292
sg17
g5286
sg18
S'0x12'
p5293
sg20
g21
ssS'352679940'
p5294
(dp5295
g3
g24
sg5
S'1299'
p5296
sS'FEC FED crate'
p5297
S'top'
p5298
sg9
g38
sg11
S'10'
p5299
sg13
S'0x7c'
p5300
sg15
S'31/32'
p5301
sg17
g5294
sg18
S'0x10'
p5302
sg20
g21
ssS'352868356'
p5303
(dp5304
g3
g24
sg5
S'1296'
p5305
sS'FEC FED crate'
p5306
S'top'
p5307
sg9
g84
sg11
g29
sg13
S'0x7d'
p5308
sg15
S'35/36'
p5309
sg17
g5303
sg18
S'0x11'
p5310
sg20
g21
ssS'352962564'
p5311
(dp5312
g3
g24
sg5
S'1297'
p5313
sS'FEC FED crate'
p5314
S'top'
p5315
sg9
g47
sg11
g29
sg13
S'0x7d'
p5316
sg15
S'39/40'
p5317
sg17
g5311
sg18
S'0x11'
p5318
sg20
g21
ssS'344781828'
p5319
(dp5320
g3
g24
sg5
S'1337'
p5321
sS'FEC FED crate'
p5322
S'bottom'
p5323
sg9
g10
sg11
g29
sg13
S'0x7b'
p5324
sg15
S'45/46'
p5325
sg17
g5319
sg18
S'0x12'
p5326
sg20
g21
ssS'344557572'
p5327
(dp5328
g3
g24
sg5
S'1322'
p5329
sS'FEC FED crate'
p5330
S'down center'
p5331
sg9
g28
sg11
g29
sg13
S'0x7c'
p5332
sg15
S'39/40'
p5333
sg17
g5327
sg18
S'0x11'
p5334
sg20
g21
ssS'344638468'
p5335
(dp5336
g3
g4
sg5
S'1337'
p5337
sS'FEC FED crate'
p5338
S'bottom'
p5339
sg9
g10
sg11
S'10'
p5340
sg13
S'0x7c'
p5341
sg15
S'13/14'
p5342
sg17
g5335
sg18
S'0x11'
p5343
sg20
g21
ssS'344679428'
p5344
(dp5345
g3
g24
sg5
S'1324'
p5346
sS'FEC FED crate'
p5347
S'down center'
p5348
sg9
g66
sg11
S'10'
p5349
sg13
S'0x7e'
p5350
sg15
S'33/34'
p5351
sg17
g5344
sg18
S'0x11'
p5352
sg20
g21
ssS'344950788'
p5353
(dp5354
g3
g24
sg5
S'1323'
p5355
sS'FEC FED crate'
p5356
S'down center'
p5357
sg9
g38
sg11
g29
sg13
S'0x7e'
p5358
sg15
S'43/44'
p5359
sg17
g5353
sg18
S'0x12'
p5360
sg20
g21
ssS'352777220'
p5361
(dp5362
g3
g4
sg5
S'1314'
p5363
sS'FEC FED crate'
p5364
S'up center'
p5365
sg9
g56
sg11
S'10'
p5366
sg13
S'0x7d'
p5367
sg15
S'5/6'
p5368
sg17
g5361
sg18
S'0x10'
p5369
sg20
g21
ssS'344486916'
p5370
(dp5371
g3
g4
sg5
S'1332'
p5372
sS'FEC FED crate'
p5373
S'bottom'
p5374
sg9
g84
sg11
g29
sg13
S'0x7d'
p5375
sg15
S'9/10'
p5376
sg17
g5370
sg18
S'0x11'
p5377
sg20
g21
ssS'352712708'
p5378
(dp5379
g3
g4
sg5
S'1296'
p5380
sS'FEC FED crate'
p5381
S'top'
p5382
sg9
g84
sg11
g29
sg13
S'0x7d'
p5383
sg15
S'7/8'
p5384
sg17
g5378
sg18
S'0x10'
p5385
sg20
g21
ssS'352913412'
p5386
(dp5387
g3
g4
sg5
S'1314'
p5388
sS'FEC FED crate'
p5389
S'up center'
p5390
sg9
g56
sg11
S'10'
p5391
sg13
S'0x7d'
p5392
sg15
S'11/12'
p5393
sg17
g5386
sg18
S'0x11'
p5394
sg20
g21
ssS'344532996'
p5395
(dp5396
g3
g24
sg5
S'1326'
p5397
sS'FEC FED crate'
p5398
S'down center'
p5399
sg9
g56
sg11
S'10'
p5400
sg13
S'0x7d'
p5401
sg15
S'35/36'
p5402
sg17
g5395
sg18
S'0x11'
p5403
sg20
g21
ssS'344642564'
p5404
(dp5405
g3
g4
sg5
S'1337'
p5406
sS'FEC FED crate'
p5407
S'bottom'
p5408
sg9
g10
sg11
S'10'
p5409
sg13
S'0x7b'
p5410
sg15
S'9/10'
p5411
sg17
g5404
sg18
S'0x11'
p5412
sg20
g21
ssS'352752644'
p5413
(dp5414
g3
g24
sg5
S'1311'
p5415
sS'FEC FED crate'
p5416
S'up center'
p5417
sg9
g38
sg11
S'10'
p5418
sg13
S'0x7e'
p5419
sg15
S'25/26'
p5420
sg17
g5413
sg18
S'0x10'
p5421
sg20
g21
ssS'352733188'
p5422
(dp5423
g3
g24
sg5
S'1309'
p5424
sS'FEC FED crate'
p5425
S'up center'
p5426
sg9
g47
sg11
g29
sg13
S'0x7c'
p5427
sg15
S'31/32'
p5428
sg17
g5422
sg18
S'0x10'
p5429
sg20
g21
ssS'352618500'
p5430
(dp5431
g3
g24
sg5
S'1308'
p5432
sS'FEC FED crate'
p5433
S'up center'
p5434
sg9
g84
sg11
g29
sg13
S'0x7b'
p5435
sg15
S'31/32'
p5436
sg17
g5430
sg18
S'0x10'
p5437
sg20
g21
ssS'353293316'
p5438
(dp5439
g3
g4
sg5
S'1313'
p5440
sS'FEC FED crate'
p5441
S'up center'
p5442
sg9
g10
sg11
g29
sg13
S'0x7d'
p5443
sg15
S'21/22'
p5444
sg17
g5438
sg18
S'0x12'
p5445
sg20
g21
ssS'344278020'
p5446
(dp5447
g3
g24
sg5
S'1325'
p5448
sS'FEC FED crate'
p5449
S'down center'
p5450
sg9
g10
sg11
S'10'
p5451
sg13
S'0x7d'
p5452
sg15
S'25/26'
p5453
sg17
g5446
sg18
S'0x10'
p5454
sg20
g21
ssS'352662532'
p5455
(dp5456
g3
g4
sg5
S'1302'
p5457
sS'FEC FED crate'
p5458
S'top'
p5459
sg9
g56
sg11
S'10'
p5460
sg13
S'0x7b'
p5461
sg15
S'5/6'
p5462
sg17
g5455
sg18
S'0x10'
p5463
sg20
g21
ssS'344843268'
p5464
(dp5465
g3
g24
sg5
S'1320'
p5466
sS'FEC FED crate'
p5467
S'down center'
p5468
sg9
g84
sg11
g29
sg13
S'0x7b'
p5469
sg15
S'41/42'
p5470
sg17
g5464
sg18
S'0x12'
p5471
sg20
g21
ssS'344864772'
p5472
(dp5473
g3
g24
sg5
S'1333'
p5474
sS'FEC FED crate'
p5475
S'bottom'
p5476
sg9
g47
sg11
g29
sg13
S'0x7d'
p5477
sg15
S'47/48'
p5478
sg17
g5472
sg18
S'0x12'
p5479
sg20
g21
ssS'344582148'
p5480
(dp5481
g3
g24
sg5
S'1320'
p5482
sS'FEC FED crate'
p5483
S'down center'
p5484
sg9
g84
sg11
g29
sg13
S'0x7b'
p5485
sg15
S'35/36'
p5486
sg17
g5480
sg18
S'0x11'
p5487
sg20
g21
ssS'344524804'
p5488
(dp5489
g3
g4
sg5
S'1338'
p5490
sS'FEC FED crate'
p5491
S'bottom'
p5492
sg9
g56
sg11
S'10'
p5493
sg13
S'0x7b'
p5494
sg15
S'15/16'
p5495
sg17
g5488
sg18
S'0x11'
p5496
sg20
g21
ssS'352700420'
p5497
(dp5498
g3
g24
sg5
S'1297'
p5499
sS'FEC FED crate'
p5500
S'top'
p5501
sg9
g47
sg11
g29
sg13
S'0x7d'
p5502
sg15
S'31/32'
p5503
sg17
g5497
sg18
S'0x10'
p5504
sg20
g21
ssS'344601604'
p5505
(dp5506
g3
g24
sg5
S'1333'
p5507
sS'FEC FED crate'
p5508
S'bottom'
p5509
sg9
g47
sg11
g29
sg13
S'0x7d'
p5510
sg15
S'37/38'
p5511
sg17
g5505
sg18
S'0x11'
p5512
sg20
g21
ssS'344905732'
p5513
(dp5514
g3
g4
sg5
S'1337'
p5515
sS'FEC FED crate'
p5516
S'bottom'
p5517
sg9
g10
sg11
g29
sg13
S'0x7b'
p5518
sg15
S'19/20'
p5519
sg17
g5513
sg18
S'0x12'
p5520
sg20
g21
ssS'344503300'
p5521
(dp5522
g3
g24
sg5
S'1334'
p5523
sS'FEC FED crate'
p5524
S'bottom'
p5525
sg9
g28
sg11
g29
sg13
S'0x7e'
p5526
sg15
S'37/38'
p5527
sg17
g5521
sg18
S'0x11'
p5528
sg20
g21
ssS'352851972'
p5529
(dp5530
g3
g4
sg5
S'1299'
p5531
sS'FEC FED crate'
p5532
S'top'
p5533
sg9
g38
sg11
g29
sg13
S'0x7e'
p5534
sg15
S'15/16'
p5535
sg17
g5529
sg18
S'0x11'
p5536
sg20
g21
ssS'353235972'
p5537
(dp5538
g3
g4
sg5
S'1296'
p5539
sS'FEC FED crate'
p5540
S'top'
p5541
sg9
g84
sg11
g29
sg13
S'0x7d'
p5542
sg15
S'21/22'
p5543
sg17
g5537
sg18
S'0x12'
p5544
sg20
g21
ssS'344531972'
p5545
(dp5546
g3
g24
sg5
S'1326'
p5547
sS'FEC FED crate'
p5548
S'down center'
p5549
sg9
g56
sg11
S'10'
p5550
sg13
S'0x7d'
p5551
sg15
S'33/34'
p5552
sg17
g5545
sg18
S'0x11'
p5553
sg20
g21
ssS'352646148'
p5554
(dp5555
g3
g24
sg5
S'1313'
p5556
sS'FEC FED crate'
p5557
S'up center'
p5558
sg9
g10
sg11
S'10'
p5559
sg13
S'0x7d'
p5560
sg15
S'25/26'
p5561
sg17
g5554
sg18
S'0x10'
p5562
sg20
g21
ssS'344209412'
p5563
(dp5564
g3
g4
sg5
S'1322'
p5565
sS'FEC FED crate'
p5566
S'down center'
p5567
sg9
g28
sg11
g29
sg13
S'0x7c'
p5568
sg15
S'3/4'
p5569
sg17
g5563
sg18
S'0x10'
p5570
sg20
g21
ssS'353297412'
p5571
(dp5572
g3
g24
sg5
S'1313'
p5573
sS'FEC FED crate'
p5574
S'up center'
p5575
sg9
g10
sg11
g29
sg13
S'0x7d'
p5576
sg15
S'45/46'
p5577
sg17
g5571
sg18
S'0x12'
p5578
sg20
g21
ssS'352609284'
p5579
(dp5580
g3
g4
sg5
S'1296'
p5581
sS'FEC FED crate'
p5582
S'top'
p5583
sg9
g84
sg11
g29
sg13
S'0x7d'
p5584
sg15
S'1/2'
p5585
sg17
g5579
sg18
S'0x10'
p5586
sg20
g21
ssS'352765956'
p5587
(dp5588
g3
g4
sg5
S'1313'
p5589
sS'FEC FED crate'
p5590
S'up center'
p5591
sg9
g10
sg11
S'10'
p5592
sg13
S'0x7e'
p5593
sg15
S'3/4'
p5594
sg17
g5587
sg18
S'0x10'
p5595
sg20
g21
ssS'353141764'
p5596
(dp5597
g3
g24
sg5
S'1308'
p5598
sS'FEC FED crate'
p5599
S'up center'
p5600
sg9
g84
sg11
g29
sg13
S'0x7b'
p5601
sg15
S'45/46'
p5602
sg17
g5596
sg18
S'0x12'
p5603
sg20
g21
ssS'344274948'
p5604
(dp5605
g3
g4
sg5
S'1326'
p5606
sS'FEC FED crate'
p5607
S'down center'
p5608
sg9
g56
sg11
S'10'
p5609
sg13
S'0x7d'
p5610
sg15
S'3/4'
p5611
sg17
g5604
sg18
S'0x10'
p5612
sg20
g21
ssS'344732676'
p5613
(dp5614
g3
g4
sg5
S'1322'
p5615
sS'FEC FED crate'
p5616
S'down center'
p5617
sg9
g28
sg11
g29
sg13
S'0x7c'
p5618
sg15
S'17/18'
p5619
sg17
g5613
sg18
S'0x12'
p5620
sg20
g21
ss.